

Microchip MPLAB XC8 Assembler V2.05 build -831301201 
                                                                                               Fri Apr 12 15:55:09 2019

Microchip MPLAB XC8 C Compiler v2.05 (Free license) build 20181220022703 Og1 
     1                           	processor	16F18855
     2                           	opt	pw 120
     3                           	opt	flic
     4                           	psect	idataBANK0,global,class=CODE,delta=2
     5                           	psect	idataBIGRAM,global,class=CODE,delta=2
     6                           	psect	cinit,global,class=CODE,merge=1,delta=2
     7                           	psect	dataBANK0,global,class=BANK0,space=1,delta=1
     8                           	psect	inittext,global,class=CODE,delta=2
     9                           	psect	cstackCOMMON,global,class=COMMON,space=1,delta=1
    10                           	psect	cstackBANK0,global,class=BANK0,space=1,delta=1
    11                           	psect	maintext,global,class=CODE,merge=1,split=1,delta=2
    12                           	psect	text1,local,class=CODE,merge=1,delta=2
    13                           	psect	text2,local,class=CODE,merge=1,delta=2,group=1
    14                           	psect	text3,local,class=CODE,merge=1,delta=2
    15                           	psect	text4,local,class=CODE,merge=1,delta=2
    16                           	psect	text5,local,class=CODE,merge=1,delta=2
    17                           	psect	text6,local,class=CODE,merge=1,delta=2
    18                           	psect	text7,local,class=CODE,merge=1,delta=2
    19                           	psect	text8,local,class=CODE,merge=1,delta=2
    20                           	psect	text9,local,class=CODE,merge=1,delta=2
    21                           	psect	text10,local,class=CODE,merge=1,delta=2
    22                           	psect	text11,local,class=CODE,merge=1,delta=2
    23                           	dabs	1,0x620,48
    24                           	dabs	1,0x5A0,80
    25                           	dabs	1,0x520,80
    26                           	dabs	1,0x4BD,51
    27                           	dabs	1,0x22ED,0,_matrix
    28                           	dabs	1,0x7E,2
    29  0000                     
    30                           ; Version 2.05
    31                           ; Generated 20/12/2018 GMT
    32                           ; 
    33                           ; Copyright © 2018, Microchip Technology Inc. and its subsidiaries ("Microchip")
    34                           ; All rights reserved.
    35                           ; 
    36                           ; This software is developed by Microchip Technology Inc. and its subsidiaries ("Microch
      +                          ip").
    37                           ; 
    38                           ; Redistribution and use in source and binary forms, with or without modification, are
    39                           ; permitted provided that the following conditions are met:
    40                           ; 
    41                           ;     1. Redistributions of source code must retain the above copyright notice, this lis
      +                          t of
    42                           ;        conditions and the following disclaimer.
    43                           ; 
    44                           ;     2. Redistributions in binary form must reproduce the above copyright notice, this 
      +                          list
    45                           ;        of conditions and the following disclaimer in the documentation and/or other
    46                           ;        materials provided with the distribution.
    47                           ; 
    48                           ;     3. Microchip's name may not be used to endorse or promote products derived from th
      +                          is
    49                           ;        software without specific prior written permission.
    50                           ; 
    51                           ; THIS SOFTWARE IS PROVIDED BY MICROCHIP "AS IS" AND ANY EXPRESS OR IMPLIED WARRANTIES,
    52                           ; INCLUDING, BUT NOT LIMITED TO, THE IMPLIED WARRANTIES OF MERCHANTABILITY AND FITNESS F
      +                          OR
    53                           ; PURPOSE ARE DISCLAIMED.  IN NO EVENT SHALL MICROCHIP BE LIABLE FOR ANY DIRECT, INDIREC
      +                          T,
    54                           ; INCIDENTAL, SPECIAL, EXEMPLARY, OR CONSEQUENTIAL DAMAGES (INCLUDING BUT NOT LIMITED TO
    55                           ; PROCUREMENT OF SUBSTITUTE GOODS OR SERVICES; LOSS OF USE, DATA OR PROFITS; OR BUSINESS
    56                           ; INTERRUPTION) HOWSOEVER CAUSED AND ON ANY THEORY OF LIABILITY, WHETHER IN CONTRACT, ST
      +                          RICT
    57                           ; LIABILITY, OR TORT (INCLUDING NEGLIGENCE OR OTHERWISE) ARISING IN ANY WAY OUT OF THE U
      +                          SE OF
    58                           ; THIS SOFTWARE, EVEN IF ADVISED OF THE POSSIBILITY OF SUCH DAMAGE.
    59                           ; 
    60                           ; 
    61                           ; Code-generator required, PIC16F18855 Definitions
    62                           ; 
    63                           ; SFR Addresses
    64  0000                     	;# 
    65  0001                     	;# 
    66  0002                     	;# 
    67  0003                     	;# 
    68  0004                     	;# 
    69  0005                     	;# 
    70  0006                     	;# 
    71  0007                     	;# 
    72  0008                     	;# 
    73  0009                     	;# 
    74  000A                     	;# 
    75  000B                     	;# 
    76  000C                     	;# 
    77  000D                     	;# 
    78  000E                     	;# 
    79  0010                     	;# 
    80  0011                     	;# 
    81  0012                     	;# 
    82  0013                     	;# 
    83  0016                     	;# 
    84  0017                     	;# 
    85  0018                     	;# 
    86  001C                     	;# 
    87  001C                     	;# 
    88  001D                     	;# 
    89  001D                     	;# 
    90  001E                     	;# 
    91  001F                     	;# 
    92  008C                     	;# 
    93  008C                     	;# 
    94  008D                     	;# 
    95  008E                     	;# 
    96  008E                     	;# 
    97  008F                     	;# 
    98  0090                     	;# 
    99  0090                     	;# 
   100  0091                     	;# 
   101  0093                     	;# 
   102  0094                     	;# 
   103  0095                     	;# 
   104  0096                     	;# 
   105  0097                     	;# 
   106  0098                     	;# 
   107  0099                     	;# 
   108  009A                     	;# 
   109  009B                     	;# 
   110  009C                     	;# 
   111  009D                     	;# 
   112  009E                     	;# 
   113  010C                     	;# 
   114  010D                     	;# 
   115  010E                     	;# 
   116  010E                     	;# 
   117  010F                     	;# 
   118  0110                     	;# 
   119  0110                     	;# 
   120  0111                     	;# 
   121  0112                     	;# 
   122  0112                     	;# 
   123  0113                     	;# 
   124  0114                     	;# 
   125  0114                     	;# 
   126  0115                     	;# 
   127  0116                     	;# 
   128  0116                     	;# 
   129  0117                     	;# 
   130  0119                     	;# 
   131  0119                     	;# 
   132  0119                     	;# 
   133  011A                     	;# 
   134  011A                     	;# 
   135  011A                     	;# 
   136  011B                     	;# 
   137  011B                     	;# 
   138  011B                     	;# 
   139  011B                     	;# 
   140  011B                     	;# 
   141  011C                     	;# 
   142  011C                     	;# 
   143  011C                     	;# 
   144  011D                     	;# 
   145  011D                     	;# 
   146  011D                     	;# 
   147  011E                     	;# 
   148  011E                     	;# 
   149  011E                     	;# 
   150  011F                     	;# 
   151  011F                     	;# 
   152  011F                     	;# 
   153  011F                     	;# 
   154  011F                     	;# 
   155  018C                     	;# 
   156  018D                     	;# 
   157  018E                     	;# 
   158  018F                     	;# 
   159  0190                     	;# 
   160  0191                     	;# 
   161  0192                     	;# 
   162  0196                     	;# 
   163  0197                     	;# 
   164  0198                     	;# 
   165  0199                     	;# 
   166  019A                     	;# 
   167  019B                     	;# 
   168  019C                     	;# 
   169  020C                     	;# 
   170  020C                     	;# 
   171  020D                     	;# 
   172  020E                     	;# 
   173  020F                     	;# 
   174  020F                     	;# 
   175  0210                     	;# 
   176  0210                     	;# 
   177  0211                     	;# 
   178  0211                     	;# 
   179  0212                     	;# 
   180  0212                     	;# 
   181  0213                     	;# 
   182  0214                     	;# 
   183  0215                     	;# 
   184  0215                     	;# 
   185  0216                     	;# 
   186  0216                     	;# 
   187  0217                     	;# 
   188  0217                     	;# 
   189  0218                     	;# 
   190  0218                     	;# 
   191  0219                     	;# 
   192  021A                     	;# 
   193  021B                     	;# 
   194  021B                     	;# 
   195  021C                     	;# 
   196  021C                     	;# 
   197  021D                     	;# 
   198  021D                     	;# 
   199  021E                     	;# 
   200  021F                     	;# 
   201  028C                     	;# 
   202  028C                     	;# 
   203  028D                     	;# 
   204  028D                     	;# 
   205  028E                     	;# 
   206  028F                     	;# 
   207  0290                     	;# 
   208  0290                     	;# 
   209  0291                     	;# 
   210  0292                     	;# 
   211  0292                     	;# 
   212  0293                     	;# 
   213  0293                     	;# 
   214  0294                     	;# 
   215  0295                     	;# 
   216  0296                     	;# 
   217  0296                     	;# 
   218  0297                     	;# 
   219  0298                     	;# 
   220  0298                     	;# 
   221  0299                     	;# 
   222  0299                     	;# 
   223  029A                     	;# 
   224  029B                     	;# 
   225  029C                     	;# 
   226  029C                     	;# 
   227  029D                     	;# 
   228  030C                     	;# 
   229  030C                     	;# 
   230  030D                     	;# 
   231  030E                     	;# 
   232  030F                     	;# 
   233  0310                     	;# 
   234  0310                     	;# 
   235  0311                     	;# 
   236  0312                     	;# 
   237  0313                     	;# 
   238  0314                     	;# 
   239  0314                     	;# 
   240  0315                     	;# 
   241  0316                     	;# 
   242  0317                     	;# 
   243  0318                     	;# 
   244  0318                     	;# 
   245  0319                     	;# 
   246  031A                     	;# 
   247  031B                     	;# 
   248  031C                     	;# 
   249  031C                     	;# 
   250  031D                     	;# 
   251  031E                     	;# 
   252  031F                     	;# 
   253  038C                     	;# 
   254  038C                     	;# 
   255  038D                     	;# 
   256  038E                     	;# 
   257  0390                     	;# 
   258  0390                     	;# 
   259  0391                     	;# 
   260  0392                     	;# 
   261  040C                     	;# 
   262  040D                     	;# 
   263  040E                     	;# 
   264  040F                     	;# 
   265  0410                     	;# 
   266  0411                     	;# 
   267  0416                     	;# 
   268  0416                     	;# 
   269  0417                     	;# 
   270  0418                     	;# 
   271  0418                     	;# 
   272  0419                     	;# 
   273  041A                     	;# 
   274  041A                     	;# 
   275  041B                     	;# 
   276  041C                     	;# 
   277  041C                     	;# 
   278  041D                     	;# 
   279  041E                     	;# 
   280  041F                     	;# 
   281  048C                     	;# 
   282  048C                     	;# 
   283  048D                     	;# 
   284  048E                     	;# 
   285  048F                     	;# 
   286  048F                     	;# 
   287  0490                     	;# 
   288  0491                     	;# 
   289  0492                     	;# 
   290  0492                     	;# 
   291  0493                     	;# 
   292  0494                     	;# 
   293  0495                     	;# 
   294  0495                     	;# 
   295  0496                     	;# 
   296  0497                     	;# 
   297  0498                     	;# 
   298  0499                     	;# 
   299  049A                     	;# 
   300  049B                     	;# 
   301  049C                     	;# 
   302  049D                     	;# 
   303  050C                     	;# 
   304  050C                     	;# 
   305  050D                     	;# 
   306  050E                     	;# 
   307  050F                     	;# 
   308  050F                     	;# 
   309  0510                     	;# 
   310  0511                     	;# 
   311  0512                     	;# 
   312  0512                     	;# 
   313  0513                     	;# 
   314  0514                     	;# 
   315  0515                     	;# 
   316  0515                     	;# 
   317  0516                     	;# 
   318  0517                     	;# 
   319  0518                     	;# 
   320  0519                     	;# 
   321  051A                     	;# 
   322  051B                     	;# 
   323  051C                     	;# 
   324  051D                     	;# 
   325  058C                     	;# 
   326  058C                     	;# 
   327  058D                     	;# 
   328  058E                     	;# 
   329  058F                     	;# 
   330  058F                     	;# 
   331  0590                     	;# 
   332  0591                     	;# 
   333  0592                     	;# 
   334  0593                     	;# 
   335  060C                     	;# 
   336  060D                     	;# 
   337  060E                     	;# 
   338  060F                     	;# 
   339  0610                     	;# 
   340  0611                     	;# 
   341  0612                     	;# 
   342  0613                     	;# 
   343  0614                     	;# 
   344  0616                     	;# 
   345  0617                     	;# 
   346  0618                     	;# 
   347  0619                     	;# 
   348  061A                     	;# 
   349  061B                     	;# 
   350  061C                     	;# 
   351  061D                     	;# 
   352  061E                     	;# 
   353  068C                     	;# 
   354  068D                     	;# 
   355  068E                     	;# 
   356  068F                     	;# 
   357  0690                     	;# 
   358  0691                     	;# 
   359  0692                     	;# 
   360  0693                     	;# 
   361  0694                     	;# 
   362  070C                     	;# 
   363  070D                     	;# 
   364  070E                     	;# 
   365  070F                     	;# 
   366  0710                     	;# 
   367  0711                     	;# 
   368  0712                     	;# 
   369  0713                     	;# 
   370  0714                     	;# 
   371  0716                     	;# 
   372  0717                     	;# 
   373  0718                     	;# 
   374  0719                     	;# 
   375  071A                     	;# 
   376  071B                     	;# 
   377  071C                     	;# 
   378  071D                     	;# 
   379  071E                     	;# 
   380  0796                     	;# 
   381  0797                     	;# 
   382  0798                     	;# 
   383  0799                     	;# 
   384  079A                     	;# 
   385  079B                     	;# 
   386  080C                     	;# 
   387  080D                     	;# 
   388  080E                     	;# 
   389  080F                     	;# 
   390  0810                     	;# 
   391  0811                     	;# 
   392  0812                     	;# 
   393  0813                     	;# 
   394  0814                     	;# 
   395  081A                     	;# 
   396  081B                     	;# 
   397  081C                     	;# 
   398  081D                     	;# 
   399  081E                     	;# 
   400  081F                     	;# 
   401  088C                     	;# 
   402  088D                     	;# 
   403  088E                     	;# 
   404  088F                     	;# 
   405  0890                     	;# 
   406  0891                     	;# 
   407  0892                     	;# 
   408  0893                     	;# 
   409  0895                     	;# 
   410  0896                     	;# 
   411  0897                     	;# 
   412  0898                     	;# 
   413  0899                     	;# 
   414  089A                     	;# 
   415  089B                     	;# 
   416  090C                     	;# 
   417  090E                     	;# 
   418  090F                     	;# 
   419  091F                     	;# 
   420  091F                     	;# 
   421  098F                     	;# 
   422  098F                     	;# 
   423  0990                     	;# 
   424  0991                     	;# 
   425  0992                     	;# 
   426  0993                     	;# 
   427  0994                     	;# 
   428  0995                     	;# 
   429  0996                     	;# 
   430  0997                     	;# 
   431  0E0F                     	;# 
   432  0E10                     	;# 
   433  0E11                     	;# 
   434  0E12                     	;# 
   435  0E13                     	;# 
   436  0E14                     	;# 
   437  0E15                     	;# 
   438  0E16                     	;# 
   439  0E17                     	;# 
   440  0E18                     	;# 
   441  0E19                     	;# 
   442  0E1A                     	;# 
   443  0E1B                     	;# 
   444  0E1C                     	;# 
   445  0E1D                     	;# 
   446  0E1E                     	;# 
   447  0E1F                     	;# 
   448  0E20                     	;# 
   449  0E21                     	;# 
   450  0E22                     	;# 
   451  0E23                     	;# 
   452  0E24                     	;# 
   453  0E25                     	;# 
   454  0E26                     	;# 
   455  0E27                     	;# 
   456  0E28                     	;# 
   457  0E29                     	;# 
   458  0E2A                     	;# 
   459  0E2B                     	;# 
   460  0E2C                     	;# 
   461  0E2D                     	;# 
   462  0E2E                     	;# 
   463  0E2F                     	;# 
   464  0E30                     	;# 
   465  0E31                     	;# 
   466  0E32                     	;# 
   467  0E33                     	;# 
   468  0E34                     	;# 
   469  0E35                     	;# 
   470  0E36                     	;# 
   471  0E37                     	;# 
   472  0E8F                     	;# 
   473  0E90                     	;# 
   474  0E91                     	;# 
   475  0E92                     	;# 
   476  0E93                     	;# 
   477  0E94                     	;# 
   478  0E95                     	;# 
   479  0E96                     	;# 
   480  0E97                     	;# 
   481  0E9C                     	;# 
   482  0E9D                     	;# 
   483  0E9E                     	;# 
   484  0EA1                     	;# 
   485  0EA2                     	;# 
   486  0EA3                     	;# 
   487  0EA4                     	;# 
   488  0EA5                     	;# 
   489  0EA9                     	;# 
   490  0EAA                     	;# 
   491  0EAB                     	;# 
   492  0EAC                     	;# 
   493  0EB1                     	;# 
   494  0EB2                     	;# 
   495  0EB3                     	;# 
   496  0EB8                     	;# 
   497  0EB9                     	;# 
   498  0EBA                     	;# 
   499  0EBB                     	;# 
   500  0EBC                     	;# 
   501  0EBD                     	;# 
   502  0EBE                     	;# 
   503  0EC3                     	;# 
   504  0EC5                     	;# 
   505  0EC6                     	;# 
   506  0EC7                     	;# 
   507  0EC8                     	;# 
   508  0EC9                     	;# 
   509  0ECA                     	;# 
   510  0ECB                     	;# 
   511  0ECC                     	;# 
   512  0F10                     	;# 
   513  0F11                     	;# 
   514  0F12                     	;# 
   515  0F13                     	;# 
   516  0F14                     	;# 
   517  0F15                     	;# 
   518  0F16                     	;# 
   519  0F17                     	;# 
   520  0F18                     	;# 
   521  0F19                     	;# 
   522  0F1A                     	;# 
   523  0F1B                     	;# 
   524  0F1C                     	;# 
   525  0F1D                     	;# 
   526  0F1E                     	;# 
   527  0F1F                     	;# 
   528  0F20                     	;# 
   529  0F21                     	;# 
   530  0F22                     	;# 
   531  0F23                     	;# 
   532  0F24                     	;# 
   533  0F25                     	;# 
   534  0F26                     	;# 
   535  0F27                     	;# 
   536  0F38                     	;# 
   537  0F39                     	;# 
   538  0F3A                     	;# 
   539  0F3B                     	;# 
   540  0F3C                     	;# 
   541  0F3D                     	;# 
   542  0F3E                     	;# 
   543  0F3F                     	;# 
   544  0F40                     	;# 
   545  0F41                     	;# 
   546  0F43                     	;# 
   547  0F44                     	;# 
   548  0F45                     	;# 
   549  0F46                     	;# 
   550  0F47                     	;# 
   551  0F48                     	;# 
   552  0F49                     	;# 
   553  0F4A                     	;# 
   554  0F4B                     	;# 
   555  0F4C                     	;# 
   556  0F4E                     	;# 
   557  0F4F                     	;# 
   558  0F50                     	;# 
   559  0F51                     	;# 
   560  0F52                     	;# 
   561  0F53                     	;# 
   562  0F54                     	;# 
   563  0F55                     	;# 
   564  0F56                     	;# 
   565  0F57                     	;# 
   566  0F65                     	;# 
   567  0F68                     	;# 
   568  0F69                     	;# 
   569  0F6A                     	;# 
   570  0F6B                     	;# 
   571  0FE4                     	;# 
   572  0FE5                     	;# 
   573  0FE6                     	;# 
   574  0FE7                     	;# 
   575  0FE8                     	;# 
   576  0FE9                     	;# 
   577  0FEA                     	;# 
   578  0FEB                     	;# 
   579  0FED                     	;# 
   580  0FEE                     	;# 
   581  0FEF                     	;# 
   582  0000                     	;# 
   583  0001                     	;# 
   584  0002                     	;# 
   585  0003                     	;# 
   586  0004                     	;# 
   587  0005                     	;# 
   588  0006                     	;# 
   589  0007                     	;# 
   590  0008                     	;# 
   591  0009                     	;# 
   592  000A                     	;# 
   593  000B                     	;# 
   594  000C                     	;# 
   595  000D                     	;# 
   596  000E                     	;# 
   597  0010                     	;# 
   598  0011                     	;# 
   599  0012                     	;# 
   600  0013                     	;# 
   601  0016                     	;# 
   602  0017                     	;# 
   603  0018                     	;# 
   604  001C                     	;# 
   605  001C                     	;# 
   606  001D                     	;# 
   607  001D                     	;# 
   608  001E                     	;# 
   609  001F                     	;# 
   610  008C                     	;# 
   611  008C                     	;# 
   612  008D                     	;# 
   613  008E                     	;# 
   614  008E                     	;# 
   615  008F                     	;# 
   616  0090                     	;# 
   617  0090                     	;# 
   618  0091                     	;# 
   619  0093                     	;# 
   620  0094                     	;# 
   621  0095                     	;# 
   622  0096                     	;# 
   623  0097                     	;# 
   624  0098                     	;# 
   625  0099                     	;# 
   626  009A                     	;# 
   627  009B                     	;# 
   628  009C                     	;# 
   629  009D                     	;# 
   630  009E                     	;# 
   631  010C                     	;# 
   632  010D                     	;# 
   633  010E                     	;# 
   634  010E                     	;# 
   635  010F                     	;# 
   636  0110                     	;# 
   637  0110                     	;# 
   638  0111                     	;# 
   639  0112                     	;# 
   640  0112                     	;# 
   641  0113                     	;# 
   642  0114                     	;# 
   643  0114                     	;# 
   644  0115                     	;# 
   645  0116                     	;# 
   646  0116                     	;# 
   647  0117                     	;# 
   648  0119                     	;# 
   649  0119                     	;# 
   650  0119                     	;# 
   651  011A                     	;# 
   652  011A                     	;# 
   653  011A                     	;# 
   654  011B                     	;# 
   655  011B                     	;# 
   656  011B                     	;# 
   657  011B                     	;# 
   658  011B                     	;# 
   659  011C                     	;# 
   660  011C                     	;# 
   661  011C                     	;# 
   662  011D                     	;# 
   663  011D                     	;# 
   664  011D                     	;# 
   665  011E                     	;# 
   666  011E                     	;# 
   667  011E                     	;# 
   668  011F                     	;# 
   669  011F                     	;# 
   670  011F                     	;# 
   671  011F                     	;# 
   672  011F                     	;# 
   673  018C                     	;# 
   674  018D                     	;# 
   675  018E                     	;# 
   676  018F                     	;# 
   677  0190                     	;# 
   678  0191                     	;# 
   679  0192                     	;# 
   680  0196                     	;# 
   681  0197                     	;# 
   682  0198                     	;# 
   683  0199                     	;# 
   684  019A                     	;# 
   685  019B                     	;# 
   686  019C                     	;# 
   687  020C                     	;# 
   688  020C                     	;# 
   689  020D                     	;# 
   690  020E                     	;# 
   691  020F                     	;# 
   692  020F                     	;# 
   693  0210                     	;# 
   694  0210                     	;# 
   695  0211                     	;# 
   696  0211                     	;# 
   697  0212                     	;# 
   698  0212                     	;# 
   699  0213                     	;# 
   700  0214                     	;# 
   701  0215                     	;# 
   702  0215                     	;# 
   703  0216                     	;# 
   704  0216                     	;# 
   705  0217                     	;# 
   706  0217                     	;# 
   707  0218                     	;# 
   708  0218                     	;# 
   709  0219                     	;# 
   710  021A                     	;# 
   711  021B                     	;# 
   712  021B                     	;# 
   713  021C                     	;# 
   714  021C                     	;# 
   715  021D                     	;# 
   716  021D                     	;# 
   717  021E                     	;# 
   718  021F                     	;# 
   719  028C                     	;# 
   720  028C                     	;# 
   721  028D                     	;# 
   722  028D                     	;# 
   723  028E                     	;# 
   724  028F                     	;# 
   725  0290                     	;# 
   726  0290                     	;# 
   727  0291                     	;# 
   728  0292                     	;# 
   729  0292                     	;# 
   730  0293                     	;# 
   731  0293                     	;# 
   732  0294                     	;# 
   733  0295                     	;# 
   734  0296                     	;# 
   735  0296                     	;# 
   736  0297                     	;# 
   737  0298                     	;# 
   738  0298                     	;# 
   739  0299                     	;# 
   740  0299                     	;# 
   741  029A                     	;# 
   742  029B                     	;# 
   743  029C                     	;# 
   744  029C                     	;# 
   745  029D                     	;# 
   746  030C                     	;# 
   747  030C                     	;# 
   748  030D                     	;# 
   749  030E                     	;# 
   750  030F                     	;# 
   751  0310                     	;# 
   752  0310                     	;# 
   753  0311                     	;# 
   754  0312                     	;# 
   755  0313                     	;# 
   756  0314                     	;# 
   757  0314                     	;# 
   758  0315                     	;# 
   759  0316                     	;# 
   760  0317                     	;# 
   761  0318                     	;# 
   762  0318                     	;# 
   763  0319                     	;# 
   764  031A                     	;# 
   765  031B                     	;# 
   766  031C                     	;# 
   767  031C                     	;# 
   768  031D                     	;# 
   769  031E                     	;# 
   770  031F                     	;# 
   771  038C                     	;# 
   772  038C                     	;# 
   773  038D                     	;# 
   774  038E                     	;# 
   775  0390                     	;# 
   776  0390                     	;# 
   777  0391                     	;# 
   778  0392                     	;# 
   779  040C                     	;# 
   780  040D                     	;# 
   781  040E                     	;# 
   782  040F                     	;# 
   783  0410                     	;# 
   784  0411                     	;# 
   785  0416                     	;# 
   786  0416                     	;# 
   787  0417                     	;# 
   788  0418                     	;# 
   789  0418                     	;# 
   790  0419                     	;# 
   791  041A                     	;# 
   792  041A                     	;# 
   793  041B                     	;# 
   794  041C                     	;# 
   795  041C                     	;# 
   796  041D                     	;# 
   797  041E                     	;# 
   798  041F                     	;# 
   799  048C                     	;# 
   800  048C                     	;# 
   801  048D                     	;# 
   802  048E                     	;# 
   803  048F                     	;# 
   804  048F                     	;# 
   805  0490                     	;# 
   806  0491                     	;# 
   807  0492                     	;# 
   808  0492                     	;# 
   809  0493                     	;# 
   810  0494                     	;# 
   811  0495                     	;# 
   812  0495                     	;# 
   813  0496                     	;# 
   814  0497                     	;# 
   815  0498                     	;# 
   816  0499                     	;# 
   817  049A                     	;# 
   818  049B                     	;# 
   819  049C                     	;# 
   820  049D                     	;# 
   821  050C                     	;# 
   822  050C                     	;# 
   823  050D                     	;# 
   824  050E                     	;# 
   825  050F                     	;# 
   826  050F                     	;# 
   827  0510                     	;# 
   828  0511                     	;# 
   829  0512                     	;# 
   830  0512                     	;# 
   831  0513                     	;# 
   832  0514                     	;# 
   833  0515                     	;# 
   834  0515                     	;# 
   835  0516                     	;# 
   836  0517                     	;# 
   837  0518                     	;# 
   838  0519                     	;# 
   839  051A                     	;# 
   840  051B                     	;# 
   841  051C                     	;# 
   842  051D                     	;# 
   843  058C                     	;# 
   844  058C                     	;# 
   845  058D                     	;# 
   846  058E                     	;# 
   847  058F                     	;# 
   848  058F                     	;# 
   849  0590                     	;# 
   850  0591                     	;# 
   851  0592                     	;# 
   852  0593                     	;# 
   853  060C                     	;# 
   854  060D                     	;# 
   855  060E                     	;# 
   856  060F                     	;# 
   857  0610                     	;# 
   858  0611                     	;# 
   859  0612                     	;# 
   860  0613                     	;# 
   861  0614                     	;# 
   862  0616                     	;# 
   863  0617                     	;# 
   864  0618                     	;# 
   865  0619                     	;# 
   866  061A                     	;# 
   867  061B                     	;# 
   868  061C                     	;# 
   869  061D                     	;# 
   870  061E                     	;# 
   871  068C                     	;# 
   872  068D                     	;# 
   873  068E                     	;# 
   874  068F                     	;# 
   875  0690                     	;# 
   876  0691                     	;# 
   877  0692                     	;# 
   878  0693                     	;# 
   879  0694                     	;# 
   880  070C                     	;# 
   881  070D                     	;# 
   882  070E                     	;# 
   883  070F                     	;# 
   884  0710                     	;# 
   885  0711                     	;# 
   886  0712                     	;# 
   887  0713                     	;# 
   888  0714                     	;# 
   889  0716                     	;# 
   890  0717                     	;# 
   891  0718                     	;# 
   892  0719                     	;# 
   893  071A                     	;# 
   894  071B                     	;# 
   895  071C                     	;# 
   896  071D                     	;# 
   897  071E                     	;# 
   898  0796                     	;# 
   899  0797                     	;# 
   900  0798                     	;# 
   901  0799                     	;# 
   902  079A                     	;# 
   903  079B                     	;# 
   904  080C                     	;# 
   905  080D                     	;# 
   906  080E                     	;# 
   907  080F                     	;# 
   908  0810                     	;# 
   909  0811                     	;# 
   910  0812                     	;# 
   911  0813                     	;# 
   912  0814                     	;# 
   913  081A                     	;# 
   914  081B                     	;# 
   915  081C                     	;# 
   916  081D                     	;# 
   917  081E                     	;# 
   918  081F                     	;# 
   919  088C                     	;# 
   920  088D                     	;# 
   921  088E                     	;# 
   922  088F                     	;# 
   923  0890                     	;# 
   924  0891                     	;# 
   925  0892                     	;# 
   926  0893                     	;# 
   927  0895                     	;# 
   928  0896                     	;# 
   929  0897                     	;# 
   930  0898                     	;# 
   931  0899                     	;# 
   932  089A                     	;# 
   933  089B                     	;# 
   934  090C                     	;# 
   935  090E                     	;# 
   936  090F                     	;# 
   937  091F                     	;# 
   938  091F                     	;# 
   939  098F                     	;# 
   940  098F                     	;# 
   941  0990                     	;# 
   942  0991                     	;# 
   943  0992                     	;# 
   944  0993                     	;# 
   945  0994                     	;# 
   946  0995                     	;# 
   947  0996                     	;# 
   948  0997                     	;# 
   949  0E0F                     	;# 
   950  0E10                     	;# 
   951  0E11                     	;# 
   952  0E12                     	;# 
   953  0E13                     	;# 
   954  0E14                     	;# 
   955  0E15                     	;# 
   956  0E16                     	;# 
   957  0E17                     	;# 
   958  0E18                     	;# 
   959  0E19                     	;# 
   960  0E1A                     	;# 
   961  0E1B                     	;# 
   962  0E1C                     	;# 
   963  0E1D                     	;# 
   964  0E1E                     	;# 
   965  0E1F                     	;# 
   966  0E20                     	;# 
   967  0E21                     	;# 
   968  0E22                     	;# 
   969  0E23                     	;# 
   970  0E24                     	;# 
   971  0E25                     	;# 
   972  0E26                     	;# 
   973  0E27                     	;# 
   974  0E28                     	;# 
   975  0E29                     	;# 
   976  0E2A                     	;# 
   977  0E2B                     	;# 
   978  0E2C                     	;# 
   979  0E2D                     	;# 
   980  0E2E                     	;# 
   981  0E2F                     	;# 
   982  0E30                     	;# 
   983  0E31                     	;# 
   984  0E32                     	;# 
   985  0E33                     	;# 
   986  0E34                     	;# 
   987  0E35                     	;# 
   988  0E36                     	;# 
   989  0E37                     	;# 
   990  0E8F                     	;# 
   991  0E90                     	;# 
   992  0E91                     	;# 
   993  0E92                     	;# 
   994  0E93                     	;# 
   995  0E94                     	;# 
   996  0E95                     	;# 
   997  0E96                     	;# 
   998  0E97                     	;# 
   999  0E9C                     	;# 
  1000  0E9D                     	;# 
  1001  0E9E                     	;# 
  1002  0EA1                     	;# 
  1003  0EA2                     	;# 
  1004  0EA3                     	;# 
  1005  0EA4                     	;# 
  1006  0EA5                     	;# 
  1007  0EA9                     	;# 
  1008  0EAA                     	;# 
  1009  0EAB                     	;# 
  1010  0EAC                     	;# 
  1011  0EB1                     	;# 
  1012  0EB2                     	;# 
  1013  0EB3                     	;# 
  1014  0EB8                     	;# 
  1015  0EB9                     	;# 
  1016  0EBA                     	;# 
  1017  0EBB                     	;# 
  1018  0EBC                     	;# 
  1019  0EBD                     	;# 
  1020  0EBE                     	;# 
  1021  0EC3                     	;# 
  1022  0EC5                     	;# 
  1023  0EC6                     	;# 
  1024  0EC7                     	;# 
  1025  0EC8                     	;# 
  1026  0EC9                     	;# 
  1027  0ECA                     	;# 
  1028  0ECB                     	;# 
  1029  0ECC                     	;# 
  1030  0F10                     	;# 
  1031  0F11                     	;# 
  1032  0F12                     	;# 
  1033  0F13                     	;# 
  1034  0F14                     	;# 
  1035  0F15                     	;# 
  1036  0F16                     	;# 
  1037  0F17                     	;# 
  1038  0F18                     	;# 
  1039  0F19                     	;# 
  1040  0F1A                     	;# 
  1041  0F1B                     	;# 
  1042  0F1C                     	;# 
  1043  0F1D                     	;# 
  1044  0F1E                     	;# 
  1045  0F1F                     	;# 
  1046  0F20                     	;# 
  1047  0F21                     	;# 
  1048  0F22                     	;# 
  1049  0F23                     	;# 
  1050  0F24                     	;# 
  1051  0F25                     	;# 
  1052  0F26                     	;# 
  1053  0F27                     	;# 
  1054  0F38                     	;# 
  1055  0F39                     	;# 
  1056  0F3A                     	;# 
  1057  0F3B                     	;# 
  1058  0F3C                     	;# 
  1059  0F3D                     	;# 
  1060  0F3E                     	;# 
  1061  0F3F                     	;# 
  1062  0F40                     	;# 
  1063  0F41                     	;# 
  1064  0F43                     	;# 
  1065  0F44                     	;# 
  1066  0F45                     	;# 
  1067  0F46                     	;# 
  1068  0F47                     	;# 
  1069  0F48                     	;# 
  1070  0F49                     	;# 
  1071  0F4A                     	;# 
  1072  0F4B                     	;# 
  1073  0F4C                     	;# 
  1074  0F4E                     	;# 
  1075  0F4F                     	;# 
  1076  0F50                     	;# 
  1077  0F51                     	;# 
  1078  0F52                     	;# 
  1079  0F53                     	;# 
  1080  0F54                     	;# 
  1081  0F55                     	;# 
  1082  0F56                     	;# 
  1083  0F57                     	;# 
  1084  0F65                     	;# 
  1085  0F68                     	;# 
  1086  0F69                     	;# 
  1087  0F6A                     	;# 
  1088  0F6B                     	;# 
  1089  0FE4                     	;# 
  1090  0FE5                     	;# 
  1091  0FE6                     	;# 
  1092  0FE7                     	;# 
  1093  0FE8                     	;# 
  1094  0FE9                     	;# 
  1095  0FEA                     	;# 
  1096  0FEB                     	;# 
  1097  0FED                     	;# 
  1098  0FEE                     	;# 
  1099  0FEF                     	;# 
  1100  0000                     	;# 
  1101  0001                     	;# 
  1102  0002                     	;# 
  1103  0003                     	;# 
  1104  0004                     	;# 
  1105  0005                     	;# 
  1106  0006                     	;# 
  1107  0007                     	;# 
  1108  0008                     	;# 
  1109  0009                     	;# 
  1110  000A                     	;# 
  1111  000B                     	;# 
  1112  000C                     	;# 
  1113  000D                     	;# 
  1114  000E                     	;# 
  1115  0010                     	;# 
  1116  0011                     	;# 
  1117  0012                     	;# 
  1118  0013                     	;# 
  1119  0016                     	;# 
  1120  0017                     	;# 
  1121  0018                     	;# 
  1122  001C                     	;# 
  1123  001C                     	;# 
  1124  001D                     	;# 
  1125  001D                     	;# 
  1126  001E                     	;# 
  1127  001F                     	;# 
  1128  008C                     	;# 
  1129  008C                     	;# 
  1130  008D                     	;# 
  1131  008E                     	;# 
  1132  008E                     	;# 
  1133  008F                     	;# 
  1134  0090                     	;# 
  1135  0090                     	;# 
  1136  0091                     	;# 
  1137  0093                     	;# 
  1138  0094                     	;# 
  1139  0095                     	;# 
  1140  0096                     	;# 
  1141  0097                     	;# 
  1142  0098                     	;# 
  1143  0099                     	;# 
  1144  009A                     	;# 
  1145  009B                     	;# 
  1146  009C                     	;# 
  1147  009D                     	;# 
  1148  009E                     	;# 
  1149  010C                     	;# 
  1150  010D                     	;# 
  1151  010E                     	;# 
  1152  010E                     	;# 
  1153  010F                     	;# 
  1154  0110                     	;# 
  1155  0110                     	;# 
  1156  0111                     	;# 
  1157  0112                     	;# 
  1158  0112                     	;# 
  1159  0113                     	;# 
  1160  0114                     	;# 
  1161  0114                     	;# 
  1162  0115                     	;# 
  1163  0116                     	;# 
  1164  0116                     	;# 
  1165  0117                     	;# 
  1166  0119                     	;# 
  1167  0119                     	;# 
  1168  0119                     	;# 
  1169  011A                     	;# 
  1170  011A                     	;# 
  1171  011A                     	;# 
  1172  011B                     	;# 
  1173  011B                     	;# 
  1174  011B                     	;# 
  1175  011B                     	;# 
  1176  011B                     	;# 
  1177  011C                     	;# 
  1178  011C                     	;# 
  1179  011C                     	;# 
  1180  011D                     	;# 
  1181  011D                     	;# 
  1182  011D                     	;# 
  1183  011E                     	;# 
  1184  011E                     	;# 
  1185  011E                     	;# 
  1186  011F                     	;# 
  1187  011F                     	;# 
  1188  011F                     	;# 
  1189  011F                     	;# 
  1190  011F                     	;# 
  1191  018C                     	;# 
  1192  018D                     	;# 
  1193  018E                     	;# 
  1194  018F                     	;# 
  1195  0190                     	;# 
  1196  0191                     	;# 
  1197  0192                     	;# 
  1198  0196                     	;# 
  1199  0197                     	;# 
  1200  0198                     	;# 
  1201  0199                     	;# 
  1202  019A                     	;# 
  1203  019B                     	;# 
  1204  019C                     	;# 
  1205  020C                     	;# 
  1206  020C                     	;# 
  1207  020D                     	;# 
  1208  020E                     	;# 
  1209  020F                     	;# 
  1210  020F                     	;# 
  1211  0210                     	;# 
  1212  0210                     	;# 
  1213  0211                     	;# 
  1214  0211                     	;# 
  1215  0212                     	;# 
  1216  0212                     	;# 
  1217  0213                     	;# 
  1218  0214                     	;# 
  1219  0215                     	;# 
  1220  0215                     	;# 
  1221  0216                     	;# 
  1222  0216                     	;# 
  1223  0217                     	;# 
  1224  0217                     	;# 
  1225  0218                     	;# 
  1226  0218                     	;# 
  1227  0219                     	;# 
  1228  021A                     	;# 
  1229  021B                     	;# 
  1230  021B                     	;# 
  1231  021C                     	;# 
  1232  021C                     	;# 
  1233  021D                     	;# 
  1234  021D                     	;# 
  1235  021E                     	;# 
  1236  021F                     	;# 
  1237  028C                     	;# 
  1238  028C                     	;# 
  1239  028D                     	;# 
  1240  028D                     	;# 
  1241  028E                     	;# 
  1242  028F                     	;# 
  1243  0290                     	;# 
  1244  0290                     	;# 
  1245  0291                     	;# 
  1246  0292                     	;# 
  1247  0292                     	;# 
  1248  0293                     	;# 
  1249  0293                     	;# 
  1250  0294                     	;# 
  1251  0295                     	;# 
  1252  0296                     	;# 
  1253  0296                     	;# 
  1254  0297                     	;# 
  1255  0298                     	;# 
  1256  0298                     	;# 
  1257  0299                     	;# 
  1258  0299                     	;# 
  1259  029A                     	;# 
  1260  029B                     	;# 
  1261  029C                     	;# 
  1262  029C                     	;# 
  1263  029D                     	;# 
  1264  030C                     	;# 
  1265  030C                     	;# 
  1266  030D                     	;# 
  1267  030E                     	;# 
  1268  030F                     	;# 
  1269  0310                     	;# 
  1270  0310                     	;# 
  1271  0311                     	;# 
  1272  0312                     	;# 
  1273  0313                     	;# 
  1274  0314                     	;# 
  1275  0314                     	;# 
  1276  0315                     	;# 
  1277  0316                     	;# 
  1278  0317                     	;# 
  1279  0318                     	;# 
  1280  0318                     	;# 
  1281  0319                     	;# 
  1282  031A                     	;# 
  1283  031B                     	;# 
  1284  031C                     	;# 
  1285  031C                     	;# 
  1286  031D                     	;# 
  1287  031E                     	;# 
  1288  031F                     	;# 
  1289  038C                     	;# 
  1290  038C                     	;# 
  1291  038D                     	;# 
  1292  038E                     	;# 
  1293  0390                     	;# 
  1294  0390                     	;# 
  1295  0391                     	;# 
  1296  0392                     	;# 
  1297  040C                     	;# 
  1298  040D                     	;# 
  1299  040E                     	;# 
  1300  040F                     	;# 
  1301  0410                     	;# 
  1302  0411                     	;# 
  1303  0416                     	;# 
  1304  0416                     	;# 
  1305  0417                     	;# 
  1306  0418                     	;# 
  1307  0418                     	;# 
  1308  0419                     	;# 
  1309  041A                     	;# 
  1310  041A                     	;# 
  1311  041B                     	;# 
  1312  041C                     	;# 
  1313  041C                     	;# 
  1314  041D                     	;# 
  1315  041E                     	;# 
  1316  041F                     	;# 
  1317  048C                     	;# 
  1318  048C                     	;# 
  1319  048D                     	;# 
  1320  048E                     	;# 
  1321  048F                     	;# 
  1322  048F                     	;# 
  1323  0490                     	;# 
  1324  0491                     	;# 
  1325  0492                     	;# 
  1326  0492                     	;# 
  1327  0493                     	;# 
  1328  0494                     	;# 
  1329  0495                     	;# 
  1330  0495                     	;# 
  1331  0496                     	;# 
  1332  0497                     	;# 
  1333  0498                     	;# 
  1334  0499                     	;# 
  1335  049A                     	;# 
  1336  049B                     	;# 
  1337  049C                     	;# 
  1338  049D                     	;# 
  1339  050C                     	;# 
  1340  050C                     	;# 
  1341  050D                     	;# 
  1342  050E                     	;# 
  1343  050F                     	;# 
  1344  050F                     	;# 
  1345  0510                     	;# 
  1346  0511                     	;# 
  1347  0512                     	;# 
  1348  0512                     	;# 
  1349  0513                     	;# 
  1350  0514                     	;# 
  1351  0515                     	;# 
  1352  0515                     	;# 
  1353  0516                     	;# 
  1354  0517                     	;# 
  1355  0518                     	;# 
  1356  0519                     	;# 
  1357  051A                     	;# 
  1358  051B                     	;# 
  1359  051C                     	;# 
  1360  051D                     	;# 
  1361  058C                     	;# 
  1362  058C                     	;# 
  1363  058D                     	;# 
  1364  058E                     	;# 
  1365  058F                     	;# 
  1366  058F                     	;# 
  1367  0590                     	;# 
  1368  0591                     	;# 
  1369  0592                     	;# 
  1370  0593                     	;# 
  1371  060C                     	;# 
  1372  060D                     	;# 
  1373  060E                     	;# 
  1374  060F                     	;# 
  1375  0610                     	;# 
  1376  0611                     	;# 
  1377  0612                     	;# 
  1378  0613                     	;# 
  1379  0614                     	;# 
  1380  0616                     	;# 
  1381  0617                     	;# 
  1382  0618                     	;# 
  1383  0619                     	;# 
  1384  061A                     	;# 
  1385  061B                     	;# 
  1386  061C                     	;# 
  1387  061D                     	;# 
  1388  061E                     	;# 
  1389  068C                     	;# 
  1390  068D                     	;# 
  1391  068E                     	;# 
  1392  068F                     	;# 
  1393  0690                     	;# 
  1394  0691                     	;# 
  1395  0692                     	;# 
  1396  0693                     	;# 
  1397  0694                     	;# 
  1398  070C                     	;# 
  1399  070D                     	;# 
  1400  070E                     	;# 
  1401  070F                     	;# 
  1402  0710                     	;# 
  1403  0711                     	;# 
  1404  0712                     	;# 
  1405  0713                     	;# 
  1406  0714                     	;# 
  1407  0716                     	;# 
  1408  0717                     	;# 
  1409  0718                     	;# 
  1410  0719                     	;# 
  1411  071A                     	;# 
  1412  071B                     	;# 
  1413  071C                     	;# 
  1414  071D                     	;# 
  1415  071E                     	;# 
  1416  0796                     	;# 
  1417  0797                     	;# 
  1418  0798                     	;# 
  1419  0799                     	;# 
  1420  079A                     	;# 
  1421  079B                     	;# 
  1422  080C                     	;# 
  1423  080D                     	;# 
  1424  080E                     	;# 
  1425  080F                     	;# 
  1426  0810                     	;# 
  1427  0811                     	;# 
  1428  0812                     	;# 
  1429  0813                     	;# 
  1430  0814                     	;# 
  1431  081A                     	;# 
  1432  081B                     	;# 
  1433  081C                     	;# 
  1434  081D                     	;# 
  1435  081E                     	;# 
  1436  081F                     	;# 
  1437  088C                     	;# 
  1438  088D                     	;# 
  1439  088E                     	;# 
  1440  088F                     	;# 
  1441  0890                     	;# 
  1442  0891                     	;# 
  1443  0892                     	;# 
  1444  0893                     	;# 
  1445  0895                     	;# 
  1446  0896                     	;# 
  1447  0897                     	;# 
  1448  0898                     	;# 
  1449  0899                     	;# 
  1450  089A                     	;# 
  1451  089B                     	;# 
  1452  090C                     	;# 
  1453  090E                     	;# 
  1454  090F                     	;# 
  1455  091F                     	;# 
  1456  091F                     	;# 
  1457  098F                     	;# 
  1458  098F                     	;# 
  1459  0990                     	;# 
  1460  0991                     	;# 
  1461  0992                     	;# 
  1462  0993                     	;# 
  1463  0994                     	;# 
  1464  0995                     	;# 
  1465  0996                     	;# 
  1466  0997                     	;# 
  1467  0E0F                     	;# 
  1468  0E10                     	;# 
  1469  0E11                     	;# 
  1470  0E12                     	;# 
  1471  0E13                     	;# 
  1472  0E14                     	;# 
  1473  0E15                     	;# 
  1474  0E16                     	;# 
  1475  0E17                     	;# 
  1476  0E18                     	;# 
  1477  0E19                     	;# 
  1478  0E1A                     	;# 
  1479  0E1B                     	;# 
  1480  0E1C                     	;# 
  1481  0E1D                     	;# 
  1482  0E1E                     	;# 
  1483  0E1F                     	;# 
  1484  0E20                     	;# 
  1485  0E21                     	;# 
  1486  0E22                     	;# 
  1487  0E23                     	;# 
  1488  0E24                     	;# 
  1489  0E25                     	;# 
  1490  0E26                     	;# 
  1491  0E27                     	;# 
  1492  0E28                     	;# 
  1493  0E29                     	;# 
  1494  0E2A                     	;# 
  1495  0E2B                     	;# 
  1496  0E2C                     	;# 
  1497  0E2D                     	;# 
  1498  0E2E                     	;# 
  1499  0E2F                     	;# 
  1500  0E30                     	;# 
  1501  0E31                     	;# 
  1502  0E32                     	;# 
  1503  0E33                     	;# 
  1504  0E34                     	;# 
  1505  0E35                     	;# 
  1506  0E36                     	;# 
  1507  0E37                     	;# 
  1508  0E8F                     	;# 
  1509  0E90                     	;# 
  1510  0E91                     	;# 
  1511  0E92                     	;# 
  1512  0E93                     	;# 
  1513  0E94                     	;# 
  1514  0E95                     	;# 
  1515  0E96                     	;# 
  1516  0E97                     	;# 
  1517  0E9C                     	;# 
  1518  0E9D                     	;# 
  1519  0E9E                     	;# 
  1520  0EA1                     	;# 
  1521  0EA2                     	;# 
  1522  0EA3                     	;# 
  1523  0EA4                     	;# 
  1524  0EA5                     	;# 
  1525  0EA9                     	;# 
  1526  0EAA                     	;# 
  1527  0EAB                     	;# 
  1528  0EAC                     	;# 
  1529  0EB1                     	;# 
  1530  0EB2                     	;# 
  1531  0EB3                     	;# 
  1532  0EB8                     	;# 
  1533  0EB9                     	;# 
  1534  0EBA                     	;# 
  1535  0EBB                     	;# 
  1536  0EBC                     	;# 
  1537  0EBD                     	;# 
  1538  0EBE                     	;# 
  1539  0EC3                     	;# 
  1540  0EC5                     	;# 
  1541  0EC6                     	;# 
  1542  0EC7                     	;# 
  1543  0EC8                     	;# 
  1544  0EC9                     	;# 
  1545  0ECA                     	;# 
  1546  0ECB                     	;# 
  1547  0ECC                     	;# 
  1548  0F10                     	;# 
  1549  0F11                     	;# 
  1550  0F12                     	;# 
  1551  0F13                     	;# 
  1552  0F14                     	;# 
  1553  0F15                     	;# 
  1554  0F16                     	;# 
  1555  0F17                     	;# 
  1556  0F18                     	;# 
  1557  0F19                     	;# 
  1558  0F1A                     	;# 
  1559  0F1B                     	;# 
  1560  0F1C                     	;# 
  1561  0F1D                     	;# 
  1562  0F1E                     	;# 
  1563  0F1F                     	;# 
  1564  0F20                     	;# 
  1565  0F21                     	;# 
  1566  0F22                     	;# 
  1567  0F23                     	;# 
  1568  0F24                     	;# 
  1569  0F25                     	;# 
  1570  0F26                     	;# 
  1571  0F27                     	;# 
  1572  0F38                     	;# 
  1573  0F39                     	;# 
  1574  0F3A                     	;# 
  1575  0F3B                     	;# 
  1576  0F3C                     	;# 
  1577  0F3D                     	;# 
  1578  0F3E                     	;# 
  1579  0F3F                     	;# 
  1580  0F40                     	;# 
  1581  0F41                     	;# 
  1582  0F43                     	;# 
  1583  0F44                     	;# 
  1584  0F45                     	;# 
  1585  0F46                     	;# 
  1586  0F47                     	;# 
  1587  0F48                     	;# 
  1588  0F49                     	;# 
  1589  0F4A                     	;# 
  1590  0F4B                     	;# 
  1591  0F4C                     	;# 
  1592  0F4E                     	;# 
  1593  0F4F                     	;# 
  1594  0F50                     	;# 
  1595  0F51                     	;# 
  1596  0F52                     	;# 
  1597  0F53                     	;# 
  1598  0F54                     	;# 
  1599  0F55                     	;# 
  1600  0F56                     	;# 
  1601  0F57                     	;# 
  1602  0F65                     	;# 
  1603  0F68                     	;# 
  1604  0F69                     	;# 
  1605  0F6A                     	;# 
  1606  0F6B                     	;# 
  1607  0FE4                     	;# 
  1608  0FE5                     	;# 
  1609  0FE6                     	;# 
  1610  0FE7                     	;# 
  1611  0FE8                     	;# 
  1612  0FE9                     	;# 
  1613  0FEA                     	;# 
  1614  0FEB                     	;# 
  1615  0FED                     	;# 
  1616  0FEE                     	;# 
  1617  0FEF                     	;# 
  1618  0000                     	;# 
  1619  0001                     	;# 
  1620  0002                     	;# 
  1621  0003                     	;# 
  1622  0004                     	;# 
  1623  0005                     	;# 
  1624  0006                     	;# 
  1625  0007                     	;# 
  1626  0008                     	;# 
  1627  0009                     	;# 
  1628  000A                     	;# 
  1629  000B                     	;# 
  1630  000C                     	;# 
  1631  000D                     	;# 
  1632  000E                     	;# 
  1633  0010                     	;# 
  1634  0011                     	;# 
  1635  0012                     	;# 
  1636  0013                     	;# 
  1637  0016                     	;# 
  1638  0017                     	;# 
  1639  0018                     	;# 
  1640  001C                     	;# 
  1641  001C                     	;# 
  1642  001D                     	;# 
  1643  001D                     	;# 
  1644  001E                     	;# 
  1645  001F                     	;# 
  1646  008C                     	;# 
  1647  008C                     	;# 
  1648  008D                     	;# 
  1649  008E                     	;# 
  1650  008E                     	;# 
  1651  008F                     	;# 
  1652  0090                     	;# 
  1653  0090                     	;# 
  1654  0091                     	;# 
  1655  0093                     	;# 
  1656  0094                     	;# 
  1657  0095                     	;# 
  1658  0096                     	;# 
  1659  0097                     	;# 
  1660  0098                     	;# 
  1661  0099                     	;# 
  1662  009A                     	;# 
  1663  009B                     	;# 
  1664  009C                     	;# 
  1665  009D                     	;# 
  1666  009E                     	;# 
  1667  010C                     	;# 
  1668  010D                     	;# 
  1669  010E                     	;# 
  1670  010E                     	;# 
  1671  010F                     	;# 
  1672  0110                     	;# 
  1673  0110                     	;# 
  1674  0111                     	;# 
  1675  0112                     	;# 
  1676  0112                     	;# 
  1677  0113                     	;# 
  1678  0114                     	;# 
  1679  0114                     	;# 
  1680  0115                     	;# 
  1681  0116                     	;# 
  1682  0116                     	;# 
  1683  0117                     	;# 
  1684  0119                     	;# 
  1685  0119                     	;# 
  1686  0119                     	;# 
  1687  011A                     	;# 
  1688  011A                     	;# 
  1689  011A                     	;# 
  1690  011B                     	;# 
  1691  011B                     	;# 
  1692  011B                     	;# 
  1693  011B                     	;# 
  1694  011B                     	;# 
  1695  011C                     	;# 
  1696  011C                     	;# 
  1697  011C                     	;# 
  1698  011D                     	;# 
  1699  011D                     	;# 
  1700  011D                     	;# 
  1701  011E                     	;# 
  1702  011E                     	;# 
  1703  011E                     	;# 
  1704  011F                     	;# 
  1705  011F                     	;# 
  1706  011F                     	;# 
  1707  011F                     	;# 
  1708  011F                     	;# 
  1709  018C                     	;# 
  1710  018D                     	;# 
  1711  018E                     	;# 
  1712  018F                     	;# 
  1713  0190                     	;# 
  1714  0191                     	;# 
  1715  0192                     	;# 
  1716  0196                     	;# 
  1717  0197                     	;# 
  1718  0198                     	;# 
  1719  0199                     	;# 
  1720  019A                     	;# 
  1721  019B                     	;# 
  1722  019C                     	;# 
  1723  020C                     	;# 
  1724  020C                     	;# 
  1725  020D                     	;# 
  1726  020E                     	;# 
  1727  020F                     	;# 
  1728  020F                     	;# 
  1729  0210                     	;# 
  1730  0210                     	;# 
  1731  0211                     	;# 
  1732  0211                     	;# 
  1733  0212                     	;# 
  1734  0212                     	;# 
  1735  0213                     	;# 
  1736  0214                     	;# 
  1737  0215                     	;# 
  1738  0215                     	;# 
  1739  0216                     	;# 
  1740  0216                     	;# 
  1741  0217                     	;# 
  1742  0217                     	;# 
  1743  0218                     	;# 
  1744  0218                     	;# 
  1745  0219                     	;# 
  1746  021A                     	;# 
  1747  021B                     	;# 
  1748  021B                     	;# 
  1749  021C                     	;# 
  1750  021C                     	;# 
  1751  021D                     	;# 
  1752  021D                     	;# 
  1753  021E                     	;# 
  1754  021F                     	;# 
  1755  028C                     	;# 
  1756  028C                     	;# 
  1757  028D                     	;# 
  1758  028D                     	;# 
  1759  028E                     	;# 
  1760  028F                     	;# 
  1761  0290                     	;# 
  1762  0290                     	;# 
  1763  0291                     	;# 
  1764  0292                     	;# 
  1765  0292                     	;# 
  1766  0293                     	;# 
  1767  0293                     	;# 
  1768  0294                     	;# 
  1769  0295                     	;# 
  1770  0296                     	;# 
  1771  0296                     	;# 
  1772  0297                     	;# 
  1773  0298                     	;# 
  1774  0298                     	;# 
  1775  0299                     	;# 
  1776  0299                     	;# 
  1777  029A                     	;# 
  1778  029B                     	;# 
  1779  029C                     	;# 
  1780  029C                     	;# 
  1781  029D                     	;# 
  1782  030C                     	;# 
  1783  030C                     	;# 
  1784  030D                     	;# 
  1785  030E                     	;# 
  1786  030F                     	;# 
  1787  0310                     	;# 
  1788  0310                     	;# 
  1789  0311                     	;# 
  1790  0312                     	;# 
  1791  0313                     	;# 
  1792  0314                     	;# 
  1793  0314                     	;# 
  1794  0315                     	;# 
  1795  0316                     	;# 
  1796  0317                     	;# 
  1797  0318                     	;# 
  1798  0318                     	;# 
  1799  0319                     	;# 
  1800  031A                     	;# 
  1801  031B                     	;# 
  1802  031C                     	;# 
  1803  031C                     	;# 
  1804  031D                     	;# 
  1805  031E                     	;# 
  1806  031F                     	;# 
  1807  038C                     	;# 
  1808  038C                     	;# 
  1809  038D                     	;# 
  1810  038E                     	;# 
  1811  0390                     	;# 
  1812  0390                     	;# 
  1813  0391                     	;# 
  1814  0392                     	;# 
  1815  040C                     	;# 
  1816  040D                     	;# 
  1817  040E                     	;# 
  1818  040F                     	;# 
  1819  0410                     	;# 
  1820  0411                     	;# 
  1821  0416                     	;# 
  1822  0416                     	;# 
  1823  0417                     	;# 
  1824  0418                     	;# 
  1825  0418                     	;# 
  1826  0419                     	;# 
  1827  041A                     	;# 
  1828  041A                     	;# 
  1829  041B                     	;# 
  1830  041C                     	;# 
  1831  041C                     	;# 
  1832  041D                     	;# 
  1833  041E                     	;# 
  1834  041F                     	;# 
  1835  048C                     	;# 
  1836  048C                     	;# 
  1837  048D                     	;# 
  1838  048E                     	;# 
  1839  048F                     	;# 
  1840  048F                     	;# 
  1841  0490                     	;# 
  1842  0491                     	;# 
  1843  0492                     	;# 
  1844  0492                     	;# 
  1845  0493                     	;# 
  1846  0494                     	;# 
  1847  0495                     	;# 
  1848  0495                     	;# 
  1849  0496                     	;# 
  1850  0497                     	;# 
  1851  0498                     	;# 
  1852  0499                     	;# 
  1853  049A                     	;# 
  1854  049B                     	;# 
  1855  049C                     	;# 
  1856  049D                     	;# 
  1857  050C                     	;# 
  1858  050C                     	;# 
  1859  050D                     	;# 
  1860  050E                     	;# 
  1861  050F                     	;# 
  1862  050F                     	;# 
  1863  0510                     	;# 
  1864  0511                     	;# 
  1865  0512                     	;# 
  1866  0512                     	;# 
  1867  0513                     	;# 
  1868  0514                     	;# 
  1869  0515                     	;# 
  1870  0515                     	;# 
  1871  0516                     	;# 
  1872  0517                     	;# 
  1873  0518                     	;# 
  1874  0519                     	;# 
  1875  051A                     	;# 
  1876  051B                     	;# 
  1877  051C                     	;# 
  1878  051D                     	;# 
  1879  058C                     	;# 
  1880  058C                     	;# 
  1881  058D                     	;# 
  1882  058E                     	;# 
  1883  058F                     	;# 
  1884  058F                     	;# 
  1885  0590                     	;# 
  1886  0591                     	;# 
  1887  0592                     	;# 
  1888  0593                     	;# 
  1889  060C                     	;# 
  1890  060D                     	;# 
  1891  060E                     	;# 
  1892  060F                     	;# 
  1893  0610                     	;# 
  1894  0611                     	;# 
  1895  0612                     	;# 
  1896  0613                     	;# 
  1897  0614                     	;# 
  1898  0616                     	;# 
  1899  0617                     	;# 
  1900  0618                     	;# 
  1901  0619                     	;# 
  1902  061A                     	;# 
  1903  061B                     	;# 
  1904  061C                     	;# 
  1905  061D                     	;# 
  1906  061E                     	;# 
  1907  068C                     	;# 
  1908  068D                     	;# 
  1909  068E                     	;# 
  1910  068F                     	;# 
  1911  0690                     	;# 
  1912  0691                     	;# 
  1913  0692                     	;# 
  1914  0693                     	;# 
  1915  0694                     	;# 
  1916  070C                     	;# 
  1917  070D                     	;# 
  1918  070E                     	;# 
  1919  070F                     	;# 
  1920  0710                     	;# 
  1921  0711                     	;# 
  1922  0712                     	;# 
  1923  0713                     	;# 
  1924  0714                     	;# 
  1925  0716                     	;# 
  1926  0717                     	;# 
  1927  0718                     	;# 
  1928  0719                     	;# 
  1929  071A                     	;# 
  1930  071B                     	;# 
  1931  071C                     	;# 
  1932  071D                     	;# 
  1933  071E                     	;# 
  1934  0796                     	;# 
  1935  0797                     	;# 
  1936  0798                     	;# 
  1937  0799                     	;# 
  1938  079A                     	;# 
  1939  079B                     	;# 
  1940  080C                     	;# 
  1941  080D                     	;# 
  1942  080E                     	;# 
  1943  080F                     	;# 
  1944  0810                     	;# 
  1945  0811                     	;# 
  1946  0812                     	;# 
  1947  0813                     	;# 
  1948  0814                     	;# 
  1949  081A                     	;# 
  1950  081B                     	;# 
  1951  081C                     	;# 
  1952  081D                     	;# 
  1953  081E                     	;# 
  1954  081F                     	;# 
  1955  088C                     	;# 
  1956  088D                     	;# 
  1957  088E                     	;# 
  1958  088F                     	;# 
  1959  0890                     	;# 
  1960  0891                     	;# 
  1961  0892                     	;# 
  1962  0893                     	;# 
  1963  0895                     	;# 
  1964  0896                     	;# 
  1965  0897                     	;# 
  1966  0898                     	;# 
  1967  0899                     	;# 
  1968  089A                     	;# 
  1969  089B                     	;# 
  1970  090C                     	;# 
  1971  090E                     	;# 
  1972  090F                     	;# 
  1973  091F                     	;# 
  1974  091F                     	;# 
  1975  098F                     	;# 
  1976  098F                     	;# 
  1977  0990                     	;# 
  1978  0991                     	;# 
  1979  0992                     	;# 
  1980  0993                     	;# 
  1981  0994                     	;# 
  1982  0995                     	;# 
  1983  0996                     	;# 
  1984  0997                     	;# 
  1985  0E0F                     	;# 
  1986  0E10                     	;# 
  1987  0E11                     	;# 
  1988  0E12                     	;# 
  1989  0E13                     	;# 
  1990  0E14                     	;# 
  1991  0E15                     	;# 
  1992  0E16                     	;# 
  1993  0E17                     	;# 
  1994  0E18                     	;# 
  1995  0E19                     	;# 
  1996  0E1A                     	;# 
  1997  0E1B                     	;# 
  1998  0E1C                     	;# 
  1999  0E1D                     	;# 
  2000  0E1E                     	;# 
  2001  0E1F                     	;# 
  2002  0E20                     	;# 
  2003  0E21                     	;# 
  2004  0E22                     	;# 
  2005  0E23                     	;# 
  2006  0E24                     	;# 
  2007  0E25                     	;# 
  2008  0E26                     	;# 
  2009  0E27                     	;# 
  2010  0E28                     	;# 
  2011  0E29                     	;# 
  2012  0E2A                     	;# 
  2013  0E2B                     	;# 
  2014  0E2C                     	;# 
  2015  0E2D                     	;# 
  2016  0E2E                     	;# 
  2017  0E2F                     	;# 
  2018  0E30                     	;# 
  2019  0E31                     	;# 
  2020  0E32                     	;# 
  2021  0E33                     	;# 
  2022  0E34                     	;# 
  2023  0E35                     	;# 
  2024  0E36                     	;# 
  2025  0E37                     	;# 
  2026  0E8F                     	;# 
  2027  0E90                     	;# 
  2028  0E91                     	;# 
  2029  0E92                     	;# 
  2030  0E93                     	;# 
  2031  0E94                     	;# 
  2032  0E95                     	;# 
  2033  0E96                     	;# 
  2034  0E97                     	;# 
  2035  0E9C                     	;# 
  2036  0E9D                     	;# 
  2037  0E9E                     	;# 
  2038  0EA1                     	;# 
  2039  0EA2                     	;# 
  2040  0EA3                     	;# 
  2041  0EA4                     	;# 
  2042  0EA5                     	;# 
  2043  0EA9                     	;# 
  2044  0EAA                     	;# 
  2045  0EAB                     	;# 
  2046  0EAC                     	;# 
  2047  0EB1                     	;# 
  2048  0EB2                     	;# 
  2049  0EB3                     	;# 
  2050  0EB8                     	;# 
  2051  0EB9                     	;# 
  2052  0EBA                     	;# 
  2053  0EBB                     	;# 
  2054  0EBC                     	;# 
  2055  0EBD                     	;# 
  2056  0EBE                     	;# 
  2057  0EC3                     	;# 
  2058  0EC5                     	;# 
  2059  0EC6                     	;# 
  2060  0EC7                     	;# 
  2061  0EC8                     	;# 
  2062  0EC9                     	;# 
  2063  0ECA                     	;# 
  2064  0ECB                     	;# 
  2065  0ECC                     	;# 
  2066  0F10                     	;# 
  2067  0F11                     	;# 
  2068  0F12                     	;# 
  2069  0F13                     	;# 
  2070  0F14                     	;# 
  2071  0F15                     	;# 
  2072  0F16                     	;# 
  2073  0F17                     	;# 
  2074  0F18                     	;# 
  2075  0F19                     	;# 
  2076  0F1A                     	;# 
  2077  0F1B                     	;# 
  2078  0F1C                     	;# 
  2079  0F1D                     	;# 
  2080  0F1E                     	;# 
  2081  0F1F                     	;# 
  2082  0F20                     	;# 
  2083  0F21                     	;# 
  2084  0F22                     	;# 
  2085  0F23                     	;# 
  2086  0F24                     	;# 
  2087  0F25                     	;# 
  2088  0F26                     	;# 
  2089  0F27                     	;# 
  2090  0F38                     	;# 
  2091  0F39                     	;# 
  2092  0F3A                     	;# 
  2093  0F3B                     	;# 
  2094  0F3C                     	;# 
  2095  0F3D                     	;# 
  2096  0F3E                     	;# 
  2097  0F3F                     	;# 
  2098  0F40                     	;# 
  2099  0F41                     	;# 
  2100  0F43                     	;# 
  2101  0F44                     	;# 
  2102  0F45                     	;# 
  2103  0F46                     	;# 
  2104  0F47                     	;# 
  2105  0F48                     	;# 
  2106  0F49                     	;# 
  2107  0F4A                     	;# 
  2108  0F4B                     	;# 
  2109  0F4C                     	;# 
  2110  0F4E                     	;# 
  2111  0F4F                     	;# 
  2112  0F50                     	;# 
  2113  0F51                     	;# 
  2114  0F52                     	;# 
  2115  0F53                     	;# 
  2116  0F54                     	;# 
  2117  0F55                     	;# 
  2118  0F56                     	;# 
  2119  0F57                     	;# 
  2120  0F65                     	;# 
  2121  0F68                     	;# 
  2122  0F69                     	;# 
  2123  0F6A                     	;# 
  2124  0F6B                     	;# 
  2125  0FE4                     	;# 
  2126  0FE5                     	;# 
  2127  0FE6                     	;# 
  2128  0FE7                     	;# 
  2129  0FE8                     	;# 
  2130  0FE9                     	;# 
  2131  0FEA                     	;# 
  2132  0FEB                     	;# 
  2133  0FED                     	;# 
  2134  0FEE                     	;# 
  2135  0FEF                     	;# 
  2136  0000                     	;# 
  2137  0001                     	;# 
  2138  0002                     	;# 
  2139  0003                     	;# 
  2140  0004                     	;# 
  2141  0005                     	;# 
  2142  0006                     	;# 
  2143  0007                     	;# 
  2144  0008                     	;# 
  2145  0009                     	;# 
  2146  000A                     	;# 
  2147  000B                     	;# 
  2148  000C                     	;# 
  2149  000D                     	;# 
  2150  000E                     	;# 
  2151  0010                     	;# 
  2152  0011                     	;# 
  2153  0012                     	;# 
  2154  0013                     	;# 
  2155  0016                     	;# 
  2156  0017                     	;# 
  2157  0018                     	;# 
  2158  001C                     	;# 
  2159  001C                     	;# 
  2160  001D                     	;# 
  2161  001D                     	;# 
  2162  001E                     	;# 
  2163  001F                     	;# 
  2164  008C                     	;# 
  2165  008C                     	;# 
  2166  008D                     	;# 
  2167  008E                     	;# 
  2168  008E                     	;# 
  2169  008F                     	;# 
  2170  0090                     	;# 
  2171  0090                     	;# 
  2172  0091                     	;# 
  2173  0093                     	;# 
  2174  0094                     	;# 
  2175  0095                     	;# 
  2176  0096                     	;# 
  2177  0097                     	;# 
  2178  0098                     	;# 
  2179  0099                     	;# 
  2180  009A                     	;# 
  2181  009B                     	;# 
  2182  009C                     	;# 
  2183  009D                     	;# 
  2184  009E                     	;# 
  2185  010C                     	;# 
  2186  010D                     	;# 
  2187  010E                     	;# 
  2188  010E                     	;# 
  2189  010F                     	;# 
  2190  0110                     	;# 
  2191  0110                     	;# 
  2192  0111                     	;# 
  2193  0112                     	;# 
  2194  0112                     	;# 
  2195  0113                     	;# 
  2196  0114                     	;# 
  2197  0114                     	;# 
  2198  0115                     	;# 
  2199  0116                     	;# 
  2200  0116                     	;# 
  2201  0117                     	;# 
  2202  0119                     	;# 
  2203  0119                     	;# 
  2204  0119                     	;# 
  2205  011A                     	;# 
  2206  011A                     	;# 
  2207  011A                     	;# 
  2208  011B                     	;# 
  2209  011B                     	;# 
  2210  011B                     	;# 
  2211  011B                     	;# 
  2212  011B                     	;# 
  2213  011C                     	;# 
  2214  011C                     	;# 
  2215  011C                     	;# 
  2216  011D                     	;# 
  2217  011D                     	;# 
  2218  011D                     	;# 
  2219  011E                     	;# 
  2220  011E                     	;# 
  2221  011E                     	;# 
  2222  011F                     	;# 
  2223  011F                     	;# 
  2224  011F                     	;# 
  2225  011F                     	;# 
  2226  011F                     	;# 
  2227  018C                     	;# 
  2228  018D                     	;# 
  2229  018E                     	;# 
  2230  018F                     	;# 
  2231  0190                     	;# 
  2232  0191                     	;# 
  2233  0192                     	;# 
  2234  0196                     	;# 
  2235  0197                     	;# 
  2236  0198                     	;# 
  2237  0199                     	;# 
  2238  019A                     	;# 
  2239  019B                     	;# 
  2240  019C                     	;# 
  2241  020C                     	;# 
  2242  020C                     	;# 
  2243  020D                     	;# 
  2244  020E                     	;# 
  2245  020F                     	;# 
  2246  020F                     	;# 
  2247  0210                     	;# 
  2248  0210                     	;# 
  2249  0211                     	;# 
  2250  0211                     	;# 
  2251  0212                     	;# 
  2252  0212                     	;# 
  2253  0213                     	;# 
  2254  0214                     	;# 
  2255  0215                     	;# 
  2256  0215                     	;# 
  2257  0216                     	;# 
  2258  0216                     	;# 
  2259  0217                     	;# 
  2260  0217                     	;# 
  2261  0218                     	;# 
  2262  0218                     	;# 
  2263  0219                     	;# 
  2264  021A                     	;# 
  2265  021B                     	;# 
  2266  021B                     	;# 
  2267  021C                     	;# 
  2268  021C                     	;# 
  2269  021D                     	;# 
  2270  021D                     	;# 
  2271  021E                     	;# 
  2272  021F                     	;# 
  2273  028C                     	;# 
  2274  028C                     	;# 
  2275  028D                     	;# 
  2276  028D                     	;# 
  2277  028E                     	;# 
  2278  028F                     	;# 
  2279  0290                     	;# 
  2280  0290                     	;# 
  2281  0291                     	;# 
  2282  0292                     	;# 
  2283  0292                     	;# 
  2284  0293                     	;# 
  2285  0293                     	;# 
  2286  0294                     	;# 
  2287  0295                     	;# 
  2288  0296                     	;# 
  2289  0296                     	;# 
  2290  0297                     	;# 
  2291  0298                     	;# 
  2292  0298                     	;# 
  2293  0299                     	;# 
  2294  0299                     	;# 
  2295  029A                     	;# 
  2296  029B                     	;# 
  2297  029C                     	;# 
  2298  029C                     	;# 
  2299  029D                     	;# 
  2300  030C                     	;# 
  2301  030C                     	;# 
  2302  030D                     	;# 
  2303  030E                     	;# 
  2304  030F                     	;# 
  2305  0310                     	;# 
  2306  0310                     	;# 
  2307  0311                     	;# 
  2308  0312                     	;# 
  2309  0313                     	;# 
  2310  0314                     	;# 
  2311  0314                     	;# 
  2312  0315                     	;# 
  2313  0316                     	;# 
  2314  0317                     	;# 
  2315  0318                     	;# 
  2316  0318                     	;# 
  2317  0319                     	;# 
  2318  031A                     	;# 
  2319  031B                     	;# 
  2320  031C                     	;# 
  2321  031C                     	;# 
  2322  031D                     	;# 
  2323  031E                     	;# 
  2324  031F                     	;# 
  2325  038C                     	;# 
  2326  038C                     	;# 
  2327  038D                     	;# 
  2328  038E                     	;# 
  2329  0390                     	;# 
  2330  0390                     	;# 
  2331  0391                     	;# 
  2332  0392                     	;# 
  2333  040C                     	;# 
  2334  040D                     	;# 
  2335  040E                     	;# 
  2336  040F                     	;# 
  2337  0410                     	;# 
  2338  0411                     	;# 
  2339  0416                     	;# 
  2340  0416                     	;# 
  2341  0417                     	;# 
  2342  0418                     	;# 
  2343  0418                     	;# 
  2344  0419                     	;# 
  2345  041A                     	;# 
  2346  041A                     	;# 
  2347  041B                     	;# 
  2348  041C                     	;# 
  2349  041C                     	;# 
  2350  041D                     	;# 
  2351  041E                     	;# 
  2352  041F                     	;# 
  2353  048C                     	;# 
  2354  048C                     	;# 
  2355  048D                     	;# 
  2356  048E                     	;# 
  2357  048F                     	;# 
  2358  048F                     	;# 
  2359  0490                     	;# 
  2360  0491                     	;# 
  2361  0492                     	;# 
  2362  0492                     	;# 
  2363  0493                     	;# 
  2364  0494                     	;# 
  2365  0495                     	;# 
  2366  0495                     	;# 
  2367  0496                     	;# 
  2368  0497                     	;# 
  2369  0498                     	;# 
  2370  0499                     	;# 
  2371  049A                     	;# 
  2372  049B                     	;# 
  2373  049C                     	;# 
  2374  049D                     	;# 
  2375  050C                     	;# 
  2376  050C                     	;# 
  2377  050D                     	;# 
  2378  050E                     	;# 
  2379  050F                     	;# 
  2380  050F                     	;# 
  2381  0510                     	;# 
  2382  0511                     	;# 
  2383  0512                     	;# 
  2384  0512                     	;# 
  2385  0513                     	;# 
  2386  0514                     	;# 
  2387  0515                     	;# 
  2388  0515                     	;# 
  2389  0516                     	;# 
  2390  0517                     	;# 
  2391  0518                     	;# 
  2392  0519                     	;# 
  2393  051A                     	;# 
  2394  051B                     	;# 
  2395  051C                     	;# 
  2396  051D                     	;# 
  2397  058C                     	;# 
  2398  058C                     	;# 
  2399  058D                     	;# 
  2400  058E                     	;# 
  2401  058F                     	;# 
  2402  058F                     	;# 
  2403  0590                     	;# 
  2404  0591                     	;# 
  2405  0592                     	;# 
  2406  0593                     	;# 
  2407  060C                     	;# 
  2408  060D                     	;# 
  2409  060E                     	;# 
  2410  060F                     	;# 
  2411  0610                     	;# 
  2412  0611                     	;# 
  2413  0612                     	;# 
  2414  0613                     	;# 
  2415  0614                     	;# 
  2416  0616                     	;# 
  2417  0617                     	;# 
  2418  0618                     	;# 
  2419  0619                     	;# 
  2420  061A                     	;# 
  2421  061B                     	;# 
  2422  061C                     	;# 
  2423  061D                     	;# 
  2424  061E                     	;# 
  2425  068C                     	;# 
  2426  068D                     	;# 
  2427  068E                     	;# 
  2428  068F                     	;# 
  2429  0690                     	;# 
  2430  0691                     	;# 
  2431  0692                     	;# 
  2432  0693                     	;# 
  2433  0694                     	;# 
  2434  070C                     	;# 
  2435  070D                     	;# 
  2436  070E                     	;# 
  2437  070F                     	;# 
  2438  0710                     	;# 
  2439  0711                     	;# 
  2440  0712                     	;# 
  2441  0713                     	;# 
  2442  0714                     	;# 
  2443  0716                     	;# 
  2444  0717                     	;# 
  2445  0718                     	;# 
  2446  0719                     	;# 
  2447  071A                     	;# 
  2448  071B                     	;# 
  2449  071C                     	;# 
  2450  071D                     	;# 
  2451  071E                     	;# 
  2452  0796                     	;# 
  2453  0797                     	;# 
  2454  0798                     	;# 
  2455  0799                     	;# 
  2456  079A                     	;# 
  2457  079B                     	;# 
  2458  080C                     	;# 
  2459  080D                     	;# 
  2460  080E                     	;# 
  2461  080F                     	;# 
  2462  0810                     	;# 
  2463  0811                     	;# 
  2464  0812                     	;# 
  2465  0813                     	;# 
  2466  0814                     	;# 
  2467  081A                     	;# 
  2468  081B                     	;# 
  2469  081C                     	;# 
  2470  081D                     	;# 
  2471  081E                     	;# 
  2472  081F                     	;# 
  2473  088C                     	;# 
  2474  088D                     	;# 
  2475  088E                     	;# 
  2476  088F                     	;# 
  2477  0890                     	;# 
  2478  0891                     	;# 
  2479  0892                     	;# 
  2480  0893                     	;# 
  2481  0895                     	;# 
  2482  0896                     	;# 
  2483  0897                     	;# 
  2484  0898                     	;# 
  2485  0899                     	;# 
  2486  089A                     	;# 
  2487  089B                     	;# 
  2488  090C                     	;# 
  2489  090E                     	;# 
  2490  090F                     	;# 
  2491  091F                     	;# 
  2492  091F                     	;# 
  2493  098F                     	;# 
  2494  098F                     	;# 
  2495  0990                     	;# 
  2496  0991                     	;# 
  2497  0992                     	;# 
  2498  0993                     	;# 
  2499  0994                     	;# 
  2500  0995                     	;# 
  2501  0996                     	;# 
  2502  0997                     	;# 
  2503  0E0F                     	;# 
  2504  0E10                     	;# 
  2505  0E11                     	;# 
  2506  0E12                     	;# 
  2507  0E13                     	;# 
  2508  0E14                     	;# 
  2509  0E15                     	;# 
  2510  0E16                     	;# 
  2511  0E17                     	;# 
  2512  0E18                     	;# 
  2513  0E19                     	;# 
  2514  0E1A                     	;# 
  2515  0E1B                     	;# 
  2516  0E1C                     	;# 
  2517  0E1D                     	;# 
  2518  0E1E                     	;# 
  2519  0E1F                     	;# 
  2520  0E20                     	;# 
  2521  0E21                     	;# 
  2522  0E22                     	;# 
  2523  0E23                     	;# 
  2524  0E24                     	;# 
  2525  0E25                     	;# 
  2526  0E26                     	;# 
  2527  0E27                     	;# 
  2528  0E28                     	;# 
  2529  0E29                     	;# 
  2530  0E2A                     	;# 
  2531  0E2B                     	;# 
  2532  0E2C                     	;# 
  2533  0E2D                     	;# 
  2534  0E2E                     	;# 
  2535  0E2F                     	;# 
  2536  0E30                     	;# 
  2537  0E31                     	;# 
  2538  0E32                     	;# 
  2539  0E33                     	;# 
  2540  0E34                     	;# 
  2541  0E35                     	;# 
  2542  0E36                     	;# 
  2543  0E37                     	;# 
  2544  0E8F                     	;# 
  2545  0E90                     	;# 
  2546  0E91                     	;# 
  2547  0E92                     	;# 
  2548  0E93                     	;# 
  2549  0E94                     	;# 
  2550  0E95                     	;# 
  2551  0E96                     	;# 
  2552  0E97                     	;# 
  2553  0E9C                     	;# 
  2554  0E9D                     	;# 
  2555  0E9E                     	;# 
  2556  0EA1                     	;# 
  2557  0EA2                     	;# 
  2558  0EA3                     	;# 
  2559  0EA4                     	;# 
  2560  0EA5                     	;# 
  2561  0EA9                     	;# 
  2562  0EAA                     	;# 
  2563  0EAB                     	;# 
  2564  0EAC                     	;# 
  2565  0EB1                     	;# 
  2566  0EB2                     	;# 
  2567  0EB3                     	;# 
  2568  0EB8                     	;# 
  2569  0EB9                     	;# 
  2570  0EBA                     	;# 
  2571  0EBB                     	;# 
  2572  0EBC                     	;# 
  2573  0EBD                     	;# 
  2574  0EBE                     	;# 
  2575  0EC3                     	;# 
  2576  0EC5                     	;# 
  2577  0EC6                     	;# 
  2578  0EC7                     	;# 
  2579  0EC8                     	;# 
  2580  0EC9                     	;# 
  2581  0ECA                     	;# 
  2582  0ECB                     	;# 
  2583  0ECC                     	;# 
  2584  0F10                     	;# 
  2585  0F11                     	;# 
  2586  0F12                     	;# 
  2587  0F13                     	;# 
  2588  0F14                     	;# 
  2589  0F15                     	;# 
  2590  0F16                     	;# 
  2591  0F17                     	;# 
  2592  0F18                     	;# 
  2593  0F19                     	;# 
  2594  0F1A                     	;# 
  2595  0F1B                     	;# 
  2596  0F1C                     	;# 
  2597  0F1D                     	;# 
  2598  0F1E                     	;# 
  2599  0F1F                     	;# 
  2600  0F20                     	;# 
  2601  0F21                     	;# 
  2602  0F22                     	;# 
  2603  0F23                     	;# 
  2604  0F24                     	;# 
  2605  0F25                     	;# 
  2606  0F26                     	;# 
  2607  0F27                     	;# 
  2608  0F38                     	;# 
  2609  0F39                     	;# 
  2610  0F3A                     	;# 
  2611  0F3B                     	;# 
  2612  0F3C                     	;# 
  2613  0F3D                     	;# 
  2614  0F3E                     	;# 
  2615  0F3F                     	;# 
  2616  0F40                     	;# 
  2617  0F41                     	;# 
  2618  0F43                     	;# 
  2619  0F44                     	;# 
  2620  0F45                     	;# 
  2621  0F46                     	;# 
  2622  0F47                     	;# 
  2623  0F48                     	;# 
  2624  0F49                     	;# 
  2625  0F4A                     	;# 
  2626  0F4B                     	;# 
  2627  0F4C                     	;# 
  2628  0F4E                     	;# 
  2629  0F4F                     	;# 
  2630  0F50                     	;# 
  2631  0F51                     	;# 
  2632  0F52                     	;# 
  2633  0F53                     	;# 
  2634  0F54                     	;# 
  2635  0F55                     	;# 
  2636  0F56                     	;# 
  2637  0F57                     	;# 
  2638  0F65                     	;# 
  2639  0F68                     	;# 
  2640  0F69                     	;# 
  2641  0F6A                     	;# 
  2642  0F6B                     	;# 
  2643  0FE4                     	;# 
  2644  0FE5                     	;# 
  2645  0FE6                     	;# 
  2646  0FE7                     	;# 
  2647  0FE8                     	;# 
  2648  0FE9                     	;# 
  2649  0FEA                     	;# 
  2650  0FEB                     	;# 
  2651  0FED                     	;# 
  2652  0FEE                     	;# 
  2653  0FEF                     	;# 
  2654  0000                     	;# 
  2655  0001                     	;# 
  2656  0002                     	;# 
  2657  0003                     	;# 
  2658  0004                     	;# 
  2659  0005                     	;# 
  2660  0006                     	;# 
  2661  0007                     	;# 
  2662  0008                     	;# 
  2663  0009                     	;# 
  2664  000A                     	;# 
  2665  000B                     	;# 
  2666  000C                     	;# 
  2667  000D                     	;# 
  2668  000E                     	;# 
  2669  0010                     	;# 
  2670  0011                     	;# 
  2671  0012                     	;# 
  2672  0013                     	;# 
  2673  0016                     	;# 
  2674  0017                     	;# 
  2675  0018                     	;# 
  2676  001C                     	;# 
  2677  001C                     	;# 
  2678  001D                     	;# 
  2679  001D                     	;# 
  2680  001E                     	;# 
  2681  001F                     	;# 
  2682  008C                     	;# 
  2683  008C                     	;# 
  2684  008D                     	;# 
  2685  008E                     	;# 
  2686  008E                     	;# 
  2687  008F                     	;# 
  2688  0090                     	;# 
  2689  0090                     	;# 
  2690  0091                     	;# 
  2691  0093                     	;# 
  2692  0094                     	;# 
  2693  0095                     	;# 
  2694  0096                     	;# 
  2695  0097                     	;# 
  2696  0098                     	;# 
  2697  0099                     	;# 
  2698  009A                     	;# 
  2699  009B                     	;# 
  2700  009C                     	;# 
  2701  009D                     	;# 
  2702  009E                     	;# 
  2703  010C                     	;# 
  2704  010D                     	;# 
  2705  010E                     	;# 
  2706  010E                     	;# 
  2707  010F                     	;# 
  2708  0110                     	;# 
  2709  0110                     	;# 
  2710  0111                     	;# 
  2711  0112                     	;# 
  2712  0112                     	;# 
  2713  0113                     	;# 
  2714  0114                     	;# 
  2715  0114                     	;# 
  2716  0115                     	;# 
  2717  0116                     	;# 
  2718  0116                     	;# 
  2719  0117                     	;# 
  2720  0119                     	;# 
  2721  0119                     	;# 
  2722  0119                     	;# 
  2723  011A                     	;# 
  2724  011A                     	;# 
  2725  011A                     	;# 
  2726  011B                     	;# 
  2727  011B                     	;# 
  2728  011B                     	;# 
  2729  011B                     	;# 
  2730  011B                     	;# 
  2731  011C                     	;# 
  2732  011C                     	;# 
  2733  011C                     	;# 
  2734  011D                     	;# 
  2735  011D                     	;# 
  2736  011D                     	;# 
  2737  011E                     	;# 
  2738  011E                     	;# 
  2739  011E                     	;# 
  2740  011F                     	;# 
  2741  011F                     	;# 
  2742  011F                     	;# 
  2743  011F                     	;# 
  2744  011F                     	;# 
  2745  018C                     	;# 
  2746  018D                     	;# 
  2747  018E                     	;# 
  2748  018F                     	;# 
  2749  0190                     	;# 
  2750  0191                     	;# 
  2751  0192                     	;# 
  2752  0196                     	;# 
  2753  0197                     	;# 
  2754  0198                     	;# 
  2755  0199                     	;# 
  2756  019A                     	;# 
  2757  019B                     	;# 
  2758  019C                     	;# 
  2759  020C                     	;# 
  2760  020C                     	;# 
  2761  020D                     	;# 
  2762  020E                     	;# 
  2763  020F                     	;# 
  2764  020F                     	;# 
  2765  0210                     	;# 
  2766  0210                     	;# 
  2767  0211                     	;# 
  2768  0211                     	;# 
  2769  0212                     	;# 
  2770  0212                     	;# 
  2771  0213                     	;# 
  2772  0214                     	;# 
  2773  0215                     	;# 
  2774  0215                     	;# 
  2775  0216                     	;# 
  2776  0216                     	;# 
  2777  0217                     	;# 
  2778  0217                     	;# 
  2779  0218                     	;# 
  2780  0218                     	;# 
  2781  0219                     	;# 
  2782  021A                     	;# 
  2783  021B                     	;# 
  2784  021B                     	;# 
  2785  021C                     	;# 
  2786  021C                     	;# 
  2787  021D                     	;# 
  2788  021D                     	;# 
  2789  021E                     	;# 
  2790  021F                     	;# 
  2791  028C                     	;# 
  2792  028C                     	;# 
  2793  028D                     	;# 
  2794  028D                     	;# 
  2795  028E                     	;# 
  2796  028F                     	;# 
  2797  0290                     	;# 
  2798  0290                     	;# 
  2799  0291                     	;# 
  2800  0292                     	;# 
  2801  0292                     	;# 
  2802  0293                     	;# 
  2803  0293                     	;# 
  2804  0294                     	;# 
  2805  0295                     	;# 
  2806  0296                     	;# 
  2807  0296                     	;# 
  2808  0297                     	;# 
  2809  0298                     	;# 
  2810  0298                     	;# 
  2811  0299                     	;# 
  2812  0299                     	;# 
  2813  029A                     	;# 
  2814  029B                     	;# 
  2815  029C                     	;# 
  2816  029C                     	;# 
  2817  029D                     	;# 
  2818  030C                     	;# 
  2819  030C                     	;# 
  2820  030D                     	;# 
  2821  030E                     	;# 
  2822  030F                     	;# 
  2823  0310                     	;# 
  2824  0310                     	;# 
  2825  0311                     	;# 
  2826  0312                     	;# 
  2827  0313                     	;# 
  2828  0314                     	;# 
  2829  0314                     	;# 
  2830  0315                     	;# 
  2831  0316                     	;# 
  2832  0317                     	;# 
  2833  0318                     	;# 
  2834  0318                     	;# 
  2835  0319                     	;# 
  2836  031A                     	;# 
  2837  031B                     	;# 
  2838  031C                     	;# 
  2839  031C                     	;# 
  2840  031D                     	;# 
  2841  031E                     	;# 
  2842  031F                     	;# 
  2843  038C                     	;# 
  2844  038C                     	;# 
  2845  038D                     	;# 
  2846  038E                     	;# 
  2847  0390                     	;# 
  2848  0390                     	;# 
  2849  0391                     	;# 
  2850  0392                     	;# 
  2851  040C                     	;# 
  2852  040D                     	;# 
  2853  040E                     	;# 
  2854  040F                     	;# 
  2855  0410                     	;# 
  2856  0411                     	;# 
  2857  0416                     	;# 
  2858  0416                     	;# 
  2859  0417                     	;# 
  2860  0418                     	;# 
  2861  0418                     	;# 
  2862  0419                     	;# 
  2863  041A                     	;# 
  2864  041A                     	;# 
  2865  041B                     	;# 
  2866  041C                     	;# 
  2867  041C                     	;# 
  2868  041D                     	;# 
  2869  041E                     	;# 
  2870  041F                     	;# 
  2871  048C                     	;# 
  2872  048C                     	;# 
  2873  048D                     	;# 
  2874  048E                     	;# 
  2875  048F                     	;# 
  2876  048F                     	;# 
  2877  0490                     	;# 
  2878  0491                     	;# 
  2879  0492                     	;# 
  2880  0492                     	;# 
  2881  0493                     	;# 
  2882  0494                     	;# 
  2883  0495                     	;# 
  2884  0495                     	;# 
  2885  0496                     	;# 
  2886  0497                     	;# 
  2887  0498                     	;# 
  2888  0499                     	;# 
  2889  049A                     	;# 
  2890  049B                     	;# 
  2891  049C                     	;# 
  2892  049D                     	;# 
  2893  050C                     	;# 
  2894  050C                     	;# 
  2895  050D                     	;# 
  2896  050E                     	;# 
  2897  050F                     	;# 
  2898  050F                     	;# 
  2899  0510                     	;# 
  2900  0511                     	;# 
  2901  0512                     	;# 
  2902  0512                     	;# 
  2903  0513                     	;# 
  2904  0514                     	;# 
  2905  0515                     	;# 
  2906  0515                     	;# 
  2907  0516                     	;# 
  2908  0517                     	;# 
  2909  0518                     	;# 
  2910  0519                     	;# 
  2911  051A                     	;# 
  2912  051B                     	;# 
  2913  051C                     	;# 
  2914  051D                     	;# 
  2915  058C                     	;# 
  2916  058C                     	;# 
  2917  058D                     	;# 
  2918  058E                     	;# 
  2919  058F                     	;# 
  2920  058F                     	;# 
  2921  0590                     	;# 
  2922  0591                     	;# 
  2923  0592                     	;# 
  2924  0593                     	;# 
  2925  060C                     	;# 
  2926  060D                     	;# 
  2927  060E                     	;# 
  2928  060F                     	;# 
  2929  0610                     	;# 
  2930  0611                     	;# 
  2931  0612                     	;# 
  2932  0613                     	;# 
  2933  0614                     	;# 
  2934  0616                     	;# 
  2935  0617                     	;# 
  2936  0618                     	;# 
  2937  0619                     	;# 
  2938  061A                     	;# 
  2939  061B                     	;# 
  2940  061C                     	;# 
  2941  061D                     	;# 
  2942  061E                     	;# 
  2943  068C                     	;# 
  2944  068D                     	;# 
  2945  068E                     	;# 
  2946  068F                     	;# 
  2947  0690                     	;# 
  2948  0691                     	;# 
  2949  0692                     	;# 
  2950  0693                     	;# 
  2951  0694                     	;# 
  2952  070C                     	;# 
  2953  070D                     	;# 
  2954  070E                     	;# 
  2955  070F                     	;# 
  2956  0710                     	;# 
  2957  0711                     	;# 
  2958  0712                     	;# 
  2959  0713                     	;# 
  2960  0714                     	;# 
  2961  0716                     	;# 
  2962  0717                     	;# 
  2963  0718                     	;# 
  2964  0719                     	;# 
  2965  071A                     	;# 
  2966  071B                     	;# 
  2967  071C                     	;# 
  2968  071D                     	;# 
  2969  071E                     	;# 
  2970  0796                     	;# 
  2971  0797                     	;# 
  2972  0798                     	;# 
  2973  0799                     	;# 
  2974  079A                     	;# 
  2975  079B                     	;# 
  2976  080C                     	;# 
  2977  080D                     	;# 
  2978  080E                     	;# 
  2979  080F                     	;# 
  2980  0810                     	;# 
  2981  0811                     	;# 
  2982  0812                     	;# 
  2983  0813                     	;# 
  2984  0814                     	;# 
  2985  081A                     	;# 
  2986  081B                     	;# 
  2987  081C                     	;# 
  2988  081D                     	;# 
  2989  081E                     	;# 
  2990  081F                     	;# 
  2991  088C                     	;# 
  2992  088D                     	;# 
  2993  088E                     	;# 
  2994  088F                     	;# 
  2995  0890                     	;# 
  2996  0891                     	;# 
  2997  0892                     	;# 
  2998  0893                     	;# 
  2999  0895                     	;# 
  3000  0896                     	;# 
  3001  0897                     	;# 
  3002  0898                     	;# 
  3003  0899                     	;# 
  3004  089A                     	;# 
  3005  089B                     	;# 
  3006  090C                     	;# 
  3007  090E                     	;# 
  3008  090F                     	;# 
  3009  091F                     	;# 
  3010  091F                     	;# 
  3011  098F                     	;# 
  3012  098F                     	;# 
  3013  0990                     	;# 
  3014  0991                     	;# 
  3015  0992                     	;# 
  3016  0993                     	;# 
  3017  0994                     	;# 
  3018  0995                     	;# 
  3019  0996                     	;# 
  3020  0997                     	;# 
  3021  0E0F                     	;# 
  3022  0E10                     	;# 
  3023  0E11                     	;# 
  3024  0E12                     	;# 
  3025  0E13                     	;# 
  3026  0E14                     	;# 
  3027  0E15                     	;# 
  3028  0E16                     	;# 
  3029  0E17                     	;# 
  3030  0E18                     	;# 
  3031  0E19                     	;# 
  3032  0E1A                     	;# 
  3033  0E1B                     	;# 
  3034  0E1C                     	;# 
  3035  0E1D                     	;# 
  3036  0E1E                     	;# 
  3037  0E1F                     	;# 
  3038  0E20                     	;# 
  3039  0E21                     	;# 
  3040  0E22                     	;# 
  3041  0E23                     	;# 
  3042  0E24                     	;# 
  3043  0E25                     	;# 
  3044  0E26                     	;# 
  3045  0E27                     	;# 
  3046  0E28                     	;# 
  3047  0E29                     	;# 
  3048  0E2A                     	;# 
  3049  0E2B                     	;# 
  3050  0E2C                     	;# 
  3051  0E2D                     	;# 
  3052  0E2E                     	;# 
  3053  0E2F                     	;# 
  3054  0E30                     	;# 
  3055  0E31                     	;# 
  3056  0E32                     	;# 
  3057  0E33                     	;# 
  3058  0E34                     	;# 
  3059  0E35                     	;# 
  3060  0E36                     	;# 
  3061  0E37                     	;# 
  3062  0E8F                     	;# 
  3063  0E90                     	;# 
  3064  0E91                     	;# 
  3065  0E92                     	;# 
  3066  0E93                     	;# 
  3067  0E94                     	;# 
  3068  0E95                     	;# 
  3069  0E96                     	;# 
  3070  0E97                     	;# 
  3071  0E9C                     	;# 
  3072  0E9D                     	;# 
  3073  0E9E                     	;# 
  3074  0EA1                     	;# 
  3075  0EA2                     	;# 
  3076  0EA3                     	;# 
  3077  0EA4                     	;# 
  3078  0EA5                     	;# 
  3079  0EA9                     	;# 
  3080  0EAA                     	;# 
  3081  0EAB                     	;# 
  3082  0EAC                     	;# 
  3083  0EB1                     	;# 
  3084  0EB2                     	;# 
  3085  0EB3                     	;# 
  3086  0EB8                     	;# 
  3087  0EB9                     	;# 
  3088  0EBA                     	;# 
  3089  0EBB                     	;# 
  3090  0EBC                     	;# 
  3091  0EBD                     	;# 
  3092  0EBE                     	;# 
  3093  0EC3                     	;# 
  3094  0EC5                     	;# 
  3095  0EC6                     	;# 
  3096  0EC7                     	;# 
  3097  0EC8                     	;# 
  3098  0EC9                     	;# 
  3099  0ECA                     	;# 
  3100  0ECB                     	;# 
  3101  0ECC                     	;# 
  3102  0F10                     	;# 
  3103  0F11                     	;# 
  3104  0F12                     	;# 
  3105  0F13                     	;# 
  3106  0F14                     	;# 
  3107  0F15                     	;# 
  3108  0F16                     	;# 
  3109  0F17                     	;# 
  3110  0F18                     	;# 
  3111  0F19                     	;# 
  3112  0F1A                     	;# 
  3113  0F1B                     	;# 
  3114  0F1C                     	;# 
  3115  0F1D                     	;# 
  3116  0F1E                     	;# 
  3117  0F1F                     	;# 
  3118  0F20                     	;# 
  3119  0F21                     	;# 
  3120  0F22                     	;# 
  3121  0F23                     	;# 
  3122  0F24                     	;# 
  3123  0F25                     	;# 
  3124  0F26                     	;# 
  3125  0F27                     	;# 
  3126  0F38                     	;# 
  3127  0F39                     	;# 
  3128  0F3A                     	;# 
  3129  0F3B                     	;# 
  3130  0F3C                     	;# 
  3131  0F3D                     	;# 
  3132  0F3E                     	;# 
  3133  0F3F                     	;# 
  3134  0F40                     	;# 
  3135  0F41                     	;# 
  3136  0F43                     	;# 
  3137  0F44                     	;# 
  3138  0F45                     	;# 
  3139  0F46                     	;# 
  3140  0F47                     	;# 
  3141  0F48                     	;# 
  3142  0F49                     	;# 
  3143  0F4A                     	;# 
  3144  0F4B                     	;# 
  3145  0F4C                     	;# 
  3146  0F4E                     	;# 
  3147  0F4F                     	;# 
  3148  0F50                     	;# 
  3149  0F51                     	;# 
  3150  0F52                     	;# 
  3151  0F53                     	;# 
  3152  0F54                     	;# 
  3153  0F55                     	;# 
  3154  0F56                     	;# 
  3155  0F57                     	;# 
  3156  0F65                     	;# 
  3157  0F68                     	;# 
  3158  0F69                     	;# 
  3159  0F6A                     	;# 
  3160  0F6B                     	;# 
  3161  0FE4                     	;# 
  3162  0FE5                     	;# 
  3163  0FE6                     	;# 
  3164  0FE7                     	;# 
  3165  0FE8                     	;# 
  3166  0FE9                     	;# 
  3167  0FEA                     	;# 
  3168  0FEB                     	;# 
  3169  0FED                     	;# 
  3170  0FEE                     	;# 
  3171  0FEF                     	;# 
  3172  0000                     	;# 
  3173  0001                     	;# 
  3174  0002                     	;# 
  3175  0003                     	;# 
  3176  0004                     	;# 
  3177  0005                     	;# 
  3178  0006                     	;# 
  3179  0007                     	;# 
  3180  0008                     	;# 
  3181  0009                     	;# 
  3182  000A                     	;# 
  3183  000B                     	;# 
  3184  000C                     	;# 
  3185  000D                     	;# 
  3186  000E                     	;# 
  3187  0010                     	;# 
  3188  0011                     	;# 
  3189  0012                     	;# 
  3190  0013                     	;# 
  3191  0016                     	;# 
  3192  0017                     	;# 
  3193  0018                     	;# 
  3194  001C                     	;# 
  3195  001C                     	;# 
  3196  001D                     	;# 
  3197  001D                     	;# 
  3198  001E                     	;# 
  3199  001F                     	;# 
  3200  008C                     	;# 
  3201  008C                     	;# 
  3202  008D                     	;# 
  3203  008E                     	;# 
  3204  008E                     	;# 
  3205  008F                     	;# 
  3206  0090                     	;# 
  3207  0090                     	;# 
  3208  0091                     	;# 
  3209  0093                     	;# 
  3210  0094                     	;# 
  3211  0095                     	;# 
  3212  0096                     	;# 
  3213  0097                     	;# 
  3214  0098                     	;# 
  3215  0099                     	;# 
  3216  009A                     	;# 
  3217  009B                     	;# 
  3218  009C                     	;# 
  3219  009D                     	;# 
  3220  009E                     	;# 
  3221  010C                     	;# 
  3222  010D                     	;# 
  3223  010E                     	;# 
  3224  010E                     	;# 
  3225  010F                     	;# 
  3226  0110                     	;# 
  3227  0110                     	;# 
  3228  0111                     	;# 
  3229  0112                     	;# 
  3230  0112                     	;# 
  3231  0113                     	;# 
  3232  0114                     	;# 
  3233  0114                     	;# 
  3234  0115                     	;# 
  3235  0116                     	;# 
  3236  0116                     	;# 
  3237  0117                     	;# 
  3238  0119                     	;# 
  3239  0119                     	;# 
  3240  0119                     	;# 
  3241  011A                     	;# 
  3242  011A                     	;# 
  3243  011A                     	;# 
  3244  011B                     	;# 
  3245  011B                     	;# 
  3246  011B                     	;# 
  3247  011B                     	;# 
  3248  011B                     	;# 
  3249  011C                     	;# 
  3250  011C                     	;# 
  3251  011C                     	;# 
  3252  011D                     	;# 
  3253  011D                     	;# 
  3254  011D                     	;# 
  3255  011E                     	;# 
  3256  011E                     	;# 
  3257  011E                     	;# 
  3258  011F                     	;# 
  3259  011F                     	;# 
  3260  011F                     	;# 
  3261  011F                     	;# 
  3262  011F                     	;# 
  3263  018C                     	;# 
  3264  018D                     	;# 
  3265  018E                     	;# 
  3266  018F                     	;# 
  3267  0190                     	;# 
  3268  0191                     	;# 
  3269  0192                     	;# 
  3270  0196                     	;# 
  3271  0197                     	;# 
  3272  0198                     	;# 
  3273  0199                     	;# 
  3274  019A                     	;# 
  3275  019B                     	;# 
  3276  019C                     	;# 
  3277  020C                     	;# 
  3278  020C                     	;# 
  3279  020D                     	;# 
  3280  020E                     	;# 
  3281  020F                     	;# 
  3282  020F                     	;# 
  3283  0210                     	;# 
  3284  0210                     	;# 
  3285  0211                     	;# 
  3286  0211                     	;# 
  3287  0212                     	;# 
  3288  0212                     	;# 
  3289  0213                     	;# 
  3290  0214                     	;# 
  3291  0215                     	;# 
  3292  0215                     	;# 
  3293  0216                     	;# 
  3294  0216                     	;# 
  3295  0217                     	;# 
  3296  0217                     	;# 
  3297  0218                     	;# 
  3298  0218                     	;# 
  3299  0219                     	;# 
  3300  021A                     	;# 
  3301  021B                     	;# 
  3302  021B                     	;# 
  3303  021C                     	;# 
  3304  021C                     	;# 
  3305  021D                     	;# 
  3306  021D                     	;# 
  3307  021E                     	;# 
  3308  021F                     	;# 
  3309  028C                     	;# 
  3310  028C                     	;# 
  3311  028D                     	;# 
  3312  028D                     	;# 
  3313  028E                     	;# 
  3314  028F                     	;# 
  3315  0290                     	;# 
  3316  0290                     	;# 
  3317  0291                     	;# 
  3318  0292                     	;# 
  3319  0292                     	;# 
  3320  0293                     	;# 
  3321  0293                     	;# 
  3322  0294                     	;# 
  3323  0295                     	;# 
  3324  0296                     	;# 
  3325  0296                     	;# 
  3326  0297                     	;# 
  3327  0298                     	;# 
  3328  0298                     	;# 
  3329  0299                     	;# 
  3330  0299                     	;# 
  3331  029A                     	;# 
  3332  029B                     	;# 
  3333  029C                     	;# 
  3334  029C                     	;# 
  3335  029D                     	;# 
  3336  030C                     	;# 
  3337  030C                     	;# 
  3338  030D                     	;# 
  3339  030E                     	;# 
  3340  030F                     	;# 
  3341  0310                     	;# 
  3342  0310                     	;# 
  3343  0311                     	;# 
  3344  0312                     	;# 
  3345  0313                     	;# 
  3346  0314                     	;# 
  3347  0314                     	;# 
  3348  0315                     	;# 
  3349  0316                     	;# 
  3350  0317                     	;# 
  3351  0318                     	;# 
  3352  0318                     	;# 
  3353  0319                     	;# 
  3354  031A                     	;# 
  3355  031B                     	;# 
  3356  031C                     	;# 
  3357  031C                     	;# 
  3358  031D                     	;# 
  3359  031E                     	;# 
  3360  031F                     	;# 
  3361  038C                     	;# 
  3362  038C                     	;# 
  3363  038D                     	;# 
  3364  038E                     	;# 
  3365  0390                     	;# 
  3366  0390                     	;# 
  3367  0391                     	;# 
  3368  0392                     	;# 
  3369  040C                     	;# 
  3370  040D                     	;# 
  3371  040E                     	;# 
  3372  040F                     	;# 
  3373  0410                     	;# 
  3374  0411                     	;# 
  3375  0416                     	;# 
  3376  0416                     	;# 
  3377  0417                     	;# 
  3378  0418                     	;# 
  3379  0418                     	;# 
  3380  0419                     	;# 
  3381  041A                     	;# 
  3382  041A                     	;# 
  3383  041B                     	;# 
  3384  041C                     	;# 
  3385  041C                     	;# 
  3386  041D                     	;# 
  3387  041E                     	;# 
  3388  041F                     	;# 
  3389  048C                     	;# 
  3390  048C                     	;# 
  3391  048D                     	;# 
  3392  048E                     	;# 
  3393  048F                     	;# 
  3394  048F                     	;# 
  3395  0490                     	;# 
  3396  0491                     	;# 
  3397  0492                     	;# 
  3398  0492                     	;# 
  3399  0493                     	;# 
  3400  0494                     	;# 
  3401  0495                     	;# 
  3402  0495                     	;# 
  3403  0496                     	;# 
  3404  0497                     	;# 
  3405  0498                     	;# 
  3406  0499                     	;# 
  3407  049A                     	;# 
  3408  049B                     	;# 
  3409  049C                     	;# 
  3410  049D                     	;# 
  3411  050C                     	;# 
  3412  050C                     	;# 
  3413  050D                     	;# 
  3414  050E                     	;# 
  3415  050F                     	;# 
  3416  050F                     	;# 
  3417  0510                     	;# 
  3418  0511                     	;# 
  3419  0512                     	;# 
  3420  0512                     	;# 
  3421  0513                     	;# 
  3422  0514                     	;# 
  3423  0515                     	;# 
  3424  0515                     	;# 
  3425  0516                     	;# 
  3426  0517                     	;# 
  3427  0518                     	;# 
  3428  0519                     	;# 
  3429  051A                     	;# 
  3430  051B                     	;# 
  3431  051C                     	;# 
  3432  051D                     	;# 
  3433  058C                     	;# 
  3434  058C                     	;# 
  3435  058D                     	;# 
  3436  058E                     	;# 
  3437  058F                     	;# 
  3438  058F                     	;# 
  3439  0590                     	;# 
  3440  0591                     	;# 
  3441  0592                     	;# 
  3442  0593                     	;# 
  3443  060C                     	;# 
  3444  060D                     	;# 
  3445  060E                     	;# 
  3446  060F                     	;# 
  3447  0610                     	;# 
  3448  0611                     	;# 
  3449  0612                     	;# 
  3450  0613                     	;# 
  3451  0614                     	;# 
  3452  0616                     	;# 
  3453  0617                     	;# 
  3454  0618                     	;# 
  3455  0619                     	;# 
  3456  061A                     	;# 
  3457  061B                     	;# 
  3458  061C                     	;# 
  3459  061D                     	;# 
  3460  061E                     	;# 
  3461  068C                     	;# 
  3462  068D                     	;# 
  3463  068E                     	;# 
  3464  068F                     	;# 
  3465  0690                     	;# 
  3466  0691                     	;# 
  3467  0692                     	;# 
  3468  0693                     	;# 
  3469  0694                     	;# 
  3470  070C                     	;# 
  3471  070D                     	;# 
  3472  070E                     	;# 
  3473  070F                     	;# 
  3474  0710                     	;# 
  3475  0711                     	;# 
  3476  0712                     	;# 
  3477  0713                     	;# 
  3478  0714                     	;# 
  3479  0716                     	;# 
  3480  0717                     	;# 
  3481  0718                     	;# 
  3482  0719                     	;# 
  3483  071A                     	;# 
  3484  071B                     	;# 
  3485  071C                     	;# 
  3486  071D                     	;# 
  3487  071E                     	;# 
  3488  0796                     	;# 
  3489  0797                     	;# 
  3490  0798                     	;# 
  3491  0799                     	;# 
  3492  079A                     	;# 
  3493  079B                     	;# 
  3494  080C                     	;# 
  3495  080D                     	;# 
  3496  080E                     	;# 
  3497  080F                     	;# 
  3498  0810                     	;# 
  3499  0811                     	;# 
  3500  0812                     	;# 
  3501  0813                     	;# 
  3502  0814                     	;# 
  3503  081A                     	;# 
  3504  081B                     	;# 
  3505  081C                     	;# 
  3506  081D                     	;# 
  3507  081E                     	;# 
  3508  081F                     	;# 
  3509  088C                     	;# 
  3510  088D                     	;# 
  3511  088E                     	;# 
  3512  088F                     	;# 
  3513  0890                     	;# 
  3514  0891                     	;# 
  3515  0892                     	;# 
  3516  0893                     	;# 
  3517  0895                     	;# 
  3518  0896                     	;# 
  3519  0897                     	;# 
  3520  0898                     	;# 
  3521  0899                     	;# 
  3522  089A                     	;# 
  3523  089B                     	;# 
  3524  090C                     	;# 
  3525  090E                     	;# 
  3526  090F                     	;# 
  3527  091F                     	;# 
  3528  091F                     	;# 
  3529  098F                     	;# 
  3530  098F                     	;# 
  3531  0990                     	;# 
  3532  0991                     	;# 
  3533  0992                     	;# 
  3534  0993                     	;# 
  3535  0994                     	;# 
  3536  0995                     	;# 
  3537  0996                     	;# 
  3538  0997                     	;# 
  3539  0E0F                     	;# 
  3540  0E10                     	;# 
  3541  0E11                     	;# 
  3542  0E12                     	;# 
  3543  0E13                     	;# 
  3544  0E14                     	;# 
  3545  0E15                     	;# 
  3546  0E16                     	;# 
  3547  0E17                     	;# 
  3548  0E18                     	;# 
  3549  0E19                     	;# 
  3550  0E1A                     	;# 
  3551  0E1B                     	;# 
  3552  0E1C                     	;# 
  3553  0E1D                     	;# 
  3554  0E1E                     	;# 
  3555  0E1F                     	;# 
  3556  0E20                     	;# 
  3557  0E21                     	;# 
  3558  0E22                     	;# 
  3559  0E23                     	;# 
  3560  0E24                     	;# 
  3561  0E25                     	;# 
  3562  0E26                     	;# 
  3563  0E27                     	;# 
  3564  0E28                     	;# 
  3565  0E29                     	;# 
  3566  0E2A                     	;# 
  3567  0E2B                     	;# 
  3568  0E2C                     	;# 
  3569  0E2D                     	;# 
  3570  0E2E                     	;# 
  3571  0E2F                     	;# 
  3572  0E30                     	;# 
  3573  0E31                     	;# 
  3574  0E32                     	;# 
  3575  0E33                     	;# 
  3576  0E34                     	;# 
  3577  0E35                     	;# 
  3578  0E36                     	;# 
  3579  0E37                     	;# 
  3580  0E8F                     	;# 
  3581  0E90                     	;# 
  3582  0E91                     	;# 
  3583  0E92                     	;# 
  3584  0E93                     	;# 
  3585  0E94                     	;# 
  3586  0E95                     	;# 
  3587  0E96                     	;# 
  3588  0E97                     	;# 
  3589  0E9C                     	;# 
  3590  0E9D                     	;# 
  3591  0E9E                     	;# 
  3592  0EA1                     	;# 
  3593  0EA2                     	;# 
  3594  0EA3                     	;# 
  3595  0EA4                     	;# 
  3596  0EA5                     	;# 
  3597  0EA9                     	;# 
  3598  0EAA                     	;# 
  3599  0EAB                     	;# 
  3600  0EAC                     	;# 
  3601  0EB1                     	;# 
  3602  0EB2                     	;# 
  3603  0EB3                     	;# 
  3604  0EB8                     	;# 
  3605  0EB9                     	;# 
  3606  0EBA                     	;# 
  3607  0EBB                     	;# 
  3608  0EBC                     	;# 
  3609  0EBD                     	;# 
  3610  0EBE                     	;# 
  3611  0EC3                     	;# 
  3612  0EC5                     	;# 
  3613  0EC6                     	;# 
  3614  0EC7                     	;# 
  3615  0EC8                     	;# 
  3616  0EC9                     	;# 
  3617  0ECA                     	;# 
  3618  0ECB                     	;# 
  3619  0ECC                     	;# 
  3620  0F10                     	;# 
  3621  0F11                     	;# 
  3622  0F12                     	;# 
  3623  0F13                     	;# 
  3624  0F14                     	;# 
  3625  0F15                     	;# 
  3626  0F16                     	;# 
  3627  0F17                     	;# 
  3628  0F18                     	;# 
  3629  0F19                     	;# 
  3630  0F1A                     	;# 
  3631  0F1B                     	;# 
  3632  0F1C                     	;# 
  3633  0F1D                     	;# 
  3634  0F1E                     	;# 
  3635  0F1F                     	;# 
  3636  0F20                     	;# 
  3637  0F21                     	;# 
  3638  0F22                     	;# 
  3639  0F23                     	;# 
  3640  0F24                     	;# 
  3641  0F25                     	;# 
  3642  0F26                     	;# 
  3643  0F27                     	;# 
  3644  0F38                     	;# 
  3645  0F39                     	;# 
  3646  0F3A                     	;# 
  3647  0F3B                     	;# 
  3648  0F3C                     	;# 
  3649  0F3D                     	;# 
  3650  0F3E                     	;# 
  3651  0F3F                     	;# 
  3652  0F40                     	;# 
  3653  0F41                     	;# 
  3654  0F43                     	;# 
  3655  0F44                     	;# 
  3656  0F45                     	;# 
  3657  0F46                     	;# 
  3658  0F47                     	;# 
  3659  0F48                     	;# 
  3660  0F49                     	;# 
  3661  0F4A                     	;# 
  3662  0F4B                     	;# 
  3663  0F4C                     	;# 
  3664  0F4E                     	;# 
  3665  0F4F                     	;# 
  3666  0F50                     	;# 
  3667  0F51                     	;# 
  3668  0F52                     	;# 
  3669  0F53                     	;# 
  3670  0F54                     	;# 
  3671  0F55                     	;# 
  3672  0F56                     	;# 
  3673  0F57                     	;# 
  3674  0F65                     	;# 
  3675  0F68                     	;# 
  3676  0F69                     	;# 
  3677  0F6A                     	;# 
  3678  0F6B                     	;# 
  3679  0FE4                     	;# 
  3680  0FE5                     	;# 
  3681  0FE6                     	;# 
  3682  0FE7                     	;# 
  3683  0FE8                     	;# 
  3684  0FE9                     	;# 
  3685  0FEA                     	;# 
  3686  0FEB                     	;# 
  3687  0FED                     	;# 
  3688  0FEE                     	;# 
  3689  0FEF                     	;_matrix
  3690                           
  3691                           	psect	idataBANK0
  3692  04E6                     __pidataBANK0:	
  3693                           
  3694                           ;initializer for _my_name
  3695  04E6  340D               	retlw	13
  3696  04E7  3400               	retlw	0
  3697  04E8  340A               	retlw	10
  3698  04E9  3400               	retlw	0
  3699  04EA  3415               	retlw	21
  3700  04EB  3400               	retlw	0
  3701  04EC  341D               	retlw	29
  3702  04ED  3400               	retlw	0
  3703  04EE  3418               	retlw	24
  3704  04EF  3400               	retlw	0
  3705  04F0  3417               	retlw	23
  3706  04F1  3400               	retlw	0
  3707  04F2  3424               	retlw	36
  3708  04F3  3400               	retlw	0
  3709  04F4  3416               	retlw	22
  3710  04F5  3400               	retlw	0
  3711  04F6  340C               	retlw	12
  3712  04F7  3400               	retlw	0
  3713  04F8  340C               	retlw	12
  3714  04F9  3400               	retlw	0
  3715  04FA  3415               	retlw	21
  3716  04FB  3400               	retlw	0
  3717  04FC  340A               	retlw	10
  3718  04FD  3400               	retlw	0
  3719  04FE  3412               	retlw	18
  3720  04FF  3400               	retlw	0
  3721  0500  3417               	retlw	23
  3722  0501  3400               	retlw	0
  3723  0502  3424               	retlw	36
  3724  0503  3400               	retlw	0
  3725  0504  340D               	retlw	13
  3726  0505  3400               	retlw	0
  3727  0506  340A               	retlw	10
  3728  0507  3400               	retlw	0
  3729  0508  3415               	retlw	21
  3730  0509  3400               	retlw	0
  3731                           
  3732                           ;initializer for _my_znum
  3733  050A  3423               	retlw	35
  3734  050B  3400               	retlw	0
  3735  050C  3402               	retlw	2
  3736  050D  3400               	retlw	0
  3737  050E  3403               	retlw	3
  3738  050F  3400               	retlw	0
  3739  0510  3404               	retlw	4
  3740  0511  3400               	retlw	0
  3741  0512  3409               	retlw	9
  3742  0513  3400               	retlw	0
  3743  0514  3401               	retlw	1
  3744  0515  3400               	retlw	0
  3745  0516  3400               	retlw	0
  3746  0517  3400               	retlw	0
  3747  0518  3403               	retlw	3
  3748  0519  3400               	retlw	0
  3749  051A  3402               	retlw	2
  3750  051B  3400               	retlw	0
  3751  051C  3424               	retlw	36
  3752  051D  3400               	retlw	0
  3753  051E  3402               	retlw	2
  3754  051F  3400               	retlw	0
  3755  0520  3403               	retlw	3
  3756  0521  3400               	retlw	0
  3757  0522  3404               	retlw	4
  3758  0523  3400               	retlw	0
  3759                           
  3760                           	psect	idataBIGRAM
  3761  059A                     __pidataBIGRAM:	
  3762                           
  3763                           ;initializer for _matrix
  3764  059A  3401               	retlw	1
  3765  059B  3401               	retlw	1
  3766  059C  3401               	retlw	1
  3767  059D  3401               	retlw	1
  3768  059E  3401               	retlw	1
  3769  059F  3401               	retlw	1
  3770  05A0  3400               	retlw	0
  3771  05A1  3400               	retlw	0
  3772  05A2  3401               	retlw	1
  3773  05A3  3401               	retlw	1
  3774  05A4  3400               	retlw	0
  3775  05A5  3400               	retlw	0
  3776  05A6  3400               	retlw	0
  3777  05A7  3400               	retlw	0
  3778  05A8  3401               	retlw	1
  3779  05A9  3401               	retlw	1
  3780  05AA  3400               	retlw	0
  3781  05AB  3401               	retlw	1
  3782  05AC  3401               	retlw	1
  3783  05AD  3400               	retlw	0
  3784  05AE  3401               	retlw	1
  3785  05AF  3401               	retlw	1
  3786  05B0  3401               	retlw	1
  3787  05B1  3401               	retlw	1
  3788  05B2  3401               	retlw	1
  3789  05B3  3400               	retlw	0
  3790  05B4  3400               	retlw	0
  3791  05B5  3401               	retlw	1
  3792  05B6  3400               	retlw	0
  3793  05B7  3401               	retlw	1
  3794  05B8  3401               	retlw	1
  3795  05B9  3400               	retlw	0
  3796  05BA  3400               	retlw	0
  3797  05BB  3401               	retlw	1
  3798  05BC  3401               	retlw	1
  3799  05BD  3401               	retlw	1
  3800  05BE  3400               	retlw	0
  3801  05BF  3401               	retlw	1
  3802  05C0  3401               	retlw	1
  3803  05C1  3400               	retlw	0
  3804  05C2  3401               	retlw	1
  3805  05C3  3401               	retlw	1
  3806  05C4  3401               	retlw	1
  3807  05C5  3400               	retlw	0
  3808  05C6  3401               	retlw	1
  3809  05C7  3401               	retlw	1
  3810  05C8  3401               	retlw	1
  3811  05C9  3401               	retlw	1
  3812  05CA  3401               	retlw	1
  3813  05CB  3401               	retlw	1
  3814  05CC  3401               	retlw	1
  3815  05CD  3401               	retlw	1
  3816  05CE  3400               	retlw	0
  3817  05CF  3400               	retlw	0
  3818  05D0  3400               	retlw	0
  3819  05D1  3400               	retlw	0
  3820  05D2  3401               	retlw	1
  3821  05D3  3401               	retlw	1
  3822  05D4  3401               	retlw	1
  3823  05D5  3401               	retlw	1
  3824  05D6  3401               	retlw	1
  3825  05D7  3401               	retlw	1
  3826  05D8  3401               	retlw	1
  3827  05D9  3401               	retlw	1
  3828  05DA  3401               	retlw	1
  3829  05DB  3401               	retlw	1
  3830  05DC  3401               	retlw	1
  3831  05DD  3400               	retlw	0
  3832  05DE  3401               	retlw	1
  3833  05DF  3401               	retlw	1
  3834  05E0  3401               	retlw	1
  3835  05E1  3401               	retlw	1
  3836  05E2  3401               	retlw	1
  3837  05E3  3400               	retlw	0
  3838  05E4  3401               	retlw	1
  3839  05E5  3401               	retlw	1
  3840  05E6  3401               	retlw	1
  3841  05E7  3400               	retlw	0
  3842  05E8  3400               	retlw	0
  3843  05E9  3401               	retlw	1
  3844  05EA  3401               	retlw	1
  3845  05EB  3401               	retlw	1
  3846  05EC  3401               	retlw	1
  3847  05ED  3401               	retlw	1
  3848  05EE  3400               	retlw	0
  3849  05EF  3400               	retlw	0
  3850  05F0  3400               	retlw	0
  3851  05F1  3401               	retlw	1
  3852  05F2  3401               	retlw	1
  3853  05F3  3400               	retlw	0
  3854  05F4  3401               	retlw	1
  3855  05F5  3400               	retlw	0
  3856  05F6  3401               	retlw	1
  3857  05F7  3401               	retlw	1
  3858  05F8  3401               	retlw	1
  3859  05F9  3401               	retlw	1
  3860  05FA  3400               	retlw	0
  3861  05FB  3401               	retlw	1
  3862  05FC  3401               	retlw	1
  3863  05FD  3400               	retlw	0
  3864  05FE  3400               	retlw	0
  3865  05FF  3401               	retlw	1
  3866  0600  3401               	retlw	1
  3867  0601  3401               	retlw	1
  3868  0602  3401               	retlw	1
  3869  0603  3401               	retlw	1
  3870  0604  3400               	retlw	0
  3871  0605  3400               	retlw	0
  3872  0606  3400               	retlw	0
  3873  0607  3401               	retlw	1
  3874  0608  3401               	retlw	1
  3875  0609  3401               	retlw	1
  3876  060A  3401               	retlw	1
  3877  060B  3400               	retlw	0
  3878  060C  3401               	retlw	1
  3879  060D  3401               	retlw	1
  3880  060E  3401               	retlw	1
  3881  060F  3401               	retlw	1
  3882  0610  3400               	retlw	0
  3883  0611  3400               	retlw	0
  3884  0612  3401               	retlw	1
  3885  0613  3401               	retlw	1
  3886  0614  3400               	retlw	0
  3887  0615  3401               	retlw	1
  3888  0616  3401               	retlw	1
  3889  0617  3401               	retlw	1
  3890  0618  3400               	retlw	0
  3891  0619  3400               	retlw	0
  3892  061A  3400               	retlw	0
  3893  061B  3400               	retlw	0
  3894  061C  3401               	retlw	1
  3895  061D  3401               	retlw	1
  3896  061E  3400               	retlw	0
  3897  061F  3400               	retlw	0
  3898  0620  3401               	retlw	1
  3899  0621  3401               	retlw	1
  3900  0622  3401               	retlw	1
  3901  0623  3401               	retlw	1
  3902  0624  3400               	retlw	0
  3903  0625  3400               	retlw	0
  3904  0626  3401               	retlw	1
  3905  0627  3400               	retlw	0
  3906  0628  3401               	retlw	1
  3907  0629  3400               	retlw	0
  3908  062A  3401               	retlw	1
  3909  062B  3401               	retlw	1
  3910  062C  3401               	retlw	1
  3911  062D  3400               	retlw	0
  3912  062E  3400               	retlw	0
  3913  062F  3400               	retlw	0
  3914  0630  3401               	retlw	1
  3915  0631  3401               	retlw	1
  3916  0632  3401               	retlw	1
  3917  0633  3400               	retlw	0
  3918  0634  3401               	retlw	1
  3919  0635  3401               	retlw	1
  3920  0636  3400               	retlw	0
  3921  0637  3401               	retlw	1
  3922  0638  3400               	retlw	0
  3923  0639  3401               	retlw	1
  3924  063A  3400               	retlw	0
  3925  063B  3400               	retlw	0
  3926  063C  3400               	retlw	0
  3927  063D  3401               	retlw	1
  3928  063E  3400               	retlw	0
  3929  063F  3401               	retlw	1
  3930  0640  3400               	retlw	0
  3931  0641  3401               	retlw	1
  3932  0642  3400               	retlw	0
  3933  0643  3400               	retlw	0
  3934  0644  3401               	retlw	1
  3935  0645  3401               	retlw	1
  3936  0646  3401               	retlw	1
  3937  0647  3400               	retlw	0
  3938  0648  3401               	retlw	1
  3939  0649  3401               	retlw	1
  3940  064A  3401               	retlw	1
  3941  064B  3400               	retlw	0
  3942  064C  3400               	retlw	0
  3943  064D  3401               	retlw	1
  3944  064E  3401               	retlw	1
  3945  064F  3401               	retlw	1
  3946  0650  3401               	retlw	1
  3947  0651  3401               	retlw	1
  3948  0652  3401               	retlw	1
  3949  0653  3400               	retlw	0
  3950  0654  3400               	retlw	0
  3951  0655  3401               	retlw	1
  3952  0656  3401               	retlw	1
  3953  0657  3400               	retlw	0
  3954  0658  3400               	retlw	0
  3955  0659  3400               	retlw	0
  3956  065A  3400               	retlw	0
  3957  065B  3401               	retlw	1
  3958  065C  3400               	retlw	0
  3959  065D  3401               	retlw	1
  3960  065E  3401               	retlw	1
  3961  065F  3400               	retlw	0
  3962  0660  3401               	retlw	1
  3963  0661  3401               	retlw	1
  3964  0662  3400               	retlw	0
  3965  0663  3401               	retlw	1
  3966  0664  3401               	retlw	1
  3967  0665  3400               	retlw	0
  3968  0666  3400               	retlw	0
  3969  0667  3400               	retlw	0
  3970  0668  3401               	retlw	1
  3971  0669  3401               	retlw	1
  3972  066A  3401               	retlw	1
  3973  066B  3401               	retlw	1
  3974  066C  3400               	retlw	0
  3975  066D  3400               	retlw	0
  3976  066E  3401               	retlw	1
  3977  066F  3401               	retlw	1
  3978  0670  3401               	retlw	1
  3979  0671  3400               	retlw	0
  3980  0672  3400               	retlw	0
  3981  0673  3400               	retlw	0
  3982  0674  3401               	retlw	1
  3983  0675  3400               	retlw	0
  3984  0676  3401               	retlw	1
  3985  0677  3400               	retlw	0
  3986  0678  3401               	retlw	1
  3987  0679  3400               	retlw	0
  3988  067A  3400               	retlw	0
  3989  067B  3401               	retlw	1
  3990  067C  3401               	retlw	1
  3991  067D  3401               	retlw	1
  3992  067E  3401               	retlw	1
  3993  067F  3401               	retlw	1
  3994  0680  3401               	retlw	1
  3995  0681  3401               	retlw	1
  3996  0682  3400               	retlw	0
  3997  0683  3400               	retlw	0
  3998  0684  3401               	retlw	1
  3999  0685  3400               	retlw	0
  4000  0686  3400               	retlw	0
  4001  0687  3401               	retlw	1
  4002  0688  3400               	retlw	0
  4003  0689  3401               	retlw	1
  4004  068A  3401               	retlw	1
  4005  068B  3401               	retlw	1
  4006  068C  3400               	retlw	0
  4007  068D  3401               	retlw	1
  4008  068E  3401               	retlw	1
  4009  068F  3401               	retlw	1
  4010  0690  3401               	retlw	1
  4011  0691  3400               	retlw	0
  4012  0692  3401               	retlw	1
  4013  0693  3401               	retlw	1
  4014  0694  3400               	retlw	0
  4015  0695  3401               	retlw	1
  4016  0696  3400               	retlw	0
  4017  0697  3400               	retlw	0
  4018  0698  3400               	retlw	0
  4019  0699  3400               	retlw	0
  4020  069A  3400               	retlw	0
  4021  069B  3400               	retlw	0
  4022  069C  3400               	retlw	0
  4023  0013                     _TRISC	set	19
  4024  0012                     _TRISB	set	18
  4025  0011                     _TRISA	set	17
  4026  0018                     _LATC	set	24
  4027  0017                     _LATB	set	23
  4028  0016                     _LATA	set	22
  4029  0017                     _LATBbits	set	23
  4030  0018                     _LATCbits	set	24
  4031  0094                     _ADCON1bits	set	148
  4032  008E                     _ADPREVL	set	142
  4033  008F                     _ADPREVH	set	143
  4034  0097                     _ADSTATbits	set	151
  4035  0090                     _ADACCL	set	144
  4036  0091                     _ADACCH	set	145
  4037  0095                     _ADCON2bits	set	149
  4038  009C                     _ADPRE	set	156
  4039  0096                     _ADCON3bits	set	150
  4040  008C                     _ADRESL	set	140
  4041  008D                     _ADRESH	set	141
  4042  0093                     _ADCON0bits	set	147
  4043  009D                     _ADACQ	set	157
  4044  0093                     _ADCON0	set	147
  4045  0098                     _ADCLK	set	152
  4046  0099                     _ADACT	set	153
  4047  009A                     _ADREF	set	154
  4048  0097                     _ADSTAT	set	151
  4049  0096                     _ADCON3	set	150
  4050  0095                     _ADCON2	set	149
  4051  0094                     _ADCON1	set	148
  4052  009B                     _ADCAP	set	155
  4053  009E                     _ADPCH	set	158
  4054  0116                     _ADERRL	set	278
  4055  0117                     _ADERRH	set	279
  4056  0114                     _ADFLTRL	set	276
  4057  0115                     _ADFLTRH	set	277
  4058  010C                     _ADCNT	set	268
  4059  010D                     _ADRPT	set	269
  4060  0113                     _ADSTPTH	set	275
  4061  0112                     _ADSTPTL	set	274
  4062  0111                     _ADUTHH	set	273
  4063  0110                     _ADUTHL	set	272
  4064  010F                     _ADLTHH	set	271
  4065  010E                     _ADLTHL	set	270
  4066  028D                     _PR2	set	653
  4067  028C                     _TMR2	set	652
  4068  028E                     _T2CONbits	set	654
  4069  0291                     _T2RSTbits	set	657
  4070  028F                     _T2HLTbits	set	655
  4071  028E                     _T2CON	set	654
  4072  028C                     _T2TMR	set	652
  4073  028D                     _T2PR	set	653
  4074  0291                     _T2RST	set	657
  4075  028F                     _T2HLT	set	655
  4076  0290                     _T2CLKCON	set	656
  4077  0710                     _PIR4bits	set	1808
  4078  079B                     _PMD5	set	1947
  4079  079A                     _PMD4	set	1946
  4080  0799                     _PMD3	set	1945
  4081  0798                     _PMD2	set	1944
  4082  0797                     _PMD1	set	1943
  4083  0796                     _PMD0	set	1942
  4084  0892                     _OSCTUNE	set	2194
  4085  0893                     _OSCFRQ	set	2195
  4086  0891                     _OSCEN	set	2193
  4087  088F                     _OSCCON3	set	2191
  4088  088D                     _OSCCON1	set	2189
  4089  0E10                     _CLC1CONbits	set	3600
  4090  0E10                     _CLC1CON	set	3600
  4091  0E19                     _CLC1GLS3	set	3609
  4092  0E18                     _CLC1GLS2	set	3608
  4093  0E17                     _CLC1GLS1	set	3607
  4094  0E16                     _CLC1GLS0	set	3606
  4095  0E15                     _CLC1SEL3	set	3605
  4096  0E14                     _CLC1SEL2	set	3604
  4097  0E13                     _CLC1SEL1	set	3603
  4098  0E12                     _CLC1SEL0	set	3602
  4099  0E11                     _CLC1POL	set	3601
  4100  0E9C                     _T2AINPPS	set	3740
  4101  0F51                     _SLRCONC	set	3921
  4102  0F46                     _SLRCONB	set	3910
  4103  0F3B                     _SLRCONA	set	3899
  4104  0F50                     _ODCONC	set	3920
  4105  0F45                     _ODCONB	set	3909
  4106  0F3A                     _ODCONA	set	3898
  4107  0F4F                     _WPUC	set	3919
  4108  0F39                     _WPUA	set	3897
  4109  0F44                     _WPUB	set	3908
  4110  0F65                     _WPUE	set	3941
  4111  0F38                     _ANSELA	set	3896
  4112  0F43                     _ANSELB	set	3907
  4113  0F4E                     _ANSELC	set	3918
  4114                           
  4115                           ; #config settings
  4116  0000                     
  4117                           	psect	cinit
  4118  07E2                     start_initialization:	
  4119  07E2                     __initialization:		;BIGRAM
  4120                           
  4121                           ; Initialize objects allocated to BIGRAM
  4122  07E2  309A               	movlw	low __pidataBIGRAM
  4123  07E3  0084               	movwf	4
  4124  07E4  3085               	movlw	(high __pidataBIGRAM)| (0+128)
  4125  07E5  0085               	movwf	5
  4126  07E6  30ED               	movlw	low (0+8941)
  4127  07E7  0086               	movwf	6
  4128  07E8  3022               	movlw	high (0+8941)
  4129  07E9  0087               	movwf	7
  4130  07EA  3001               	movlw	1
  4131  07EB  00FF               	movwf	btemp+1
  4132  07EC  3003               	movlw	3
  4133  07ED  3184  2441  3187   	fcall	init_ram
  4134                           
  4135                           ; Initialize objects allocated to BANK0
  4136  07F0  30E6               	movlw	low __pidataBANK0
  4137  07F1  0084               	movwf	4
  4138  07F2  3084               	movlw	(high __pidataBANK0)| (0+128)
  4139  07F3  0085               	movwf	5
  4140  07F4  3020               	movlw	low __pdataBANK0
  4141  07F5  0086               	movwf	6
  4142  07F6  3000               	movlw	high __pdataBANK0
  4143  07F7  0087               	movwf	7
  4144  07F8  3000               	movlw	0
  4145  07F9  00FF               	movwf	btemp+1
  4146  07FA  303E               	movlw	62
  4147  07FB  3184  2441         	fcall	init_ram
  4148  07FD                     end_of_initialization:	
  4149                           ;End of C runtime variable initialization code
  4150                           
  4151  07FD                     __end_of__initialization:	
  4152  07FD  0020               	movlb	0
  4153  07FE  3186  2E9D         	ljmp	_main	;jump to C main() function
  4154                           
  4155                           	psect	dataBANK0
  4156  0020                     __pdataBANK0:	
  4157  0020                     _my_name:	
  4158  0020                     	ds	36
  4159  0044                     _my_znum:	
  4160  0044                     	ds	26
  4161                           
  4162                           	psect	inittext
  4163  0441                     init_ram:	
  4164  0441  00FE               	movwf	126
  4165  0442                     initloop:	
  4166  0442  0012               	moviw fsr0++
  4167  0443  001E               	movwi fsr1++
  4168  0444  3001               	movlw	1
  4169  0445  02FE               	subwf	126,f
  4170  0446  3000               	movlw	0
  4171  0447  3BFF               	subwfb	127,f
  4172  0448  087F               	movf	127,w
  4173  0449  047E               	iorwf	126,w
  4174  044A  1903               	btfsc	3,2
  4175  044B  3400               	retlw	0
  4176  044C  2C42               	goto	initloop
  4177                           
  4178                           	psect	cstackCOMMON
  4179  0070                     __pcstackCOMMON:	
  4180  0070                     ?_SYSTEM_Initialize:	
  4181  0070                     ??_SYSTEM_Initialize:	
  4182                           ; 1 bytes @ 0x0
  4183                           
  4184  0070                     ?_CLC1_OutputStatusGet:	
  4185                           ; 1 bytes @ 0x0
  4186                           
  4187  0070                     ??_CLC1_OutputStatusGet:	
  4188                           ; 1 bytes @ 0x0
  4189                           
  4190  0070                     ?_PMD_Initialize:	
  4191                           ; 1 bytes @ 0x0
  4192                           
  4193  0070                     ??_PMD_Initialize:	
  4194                           ; 1 bytes @ 0x0
  4195                           
  4196  0070                     ?_PIN_MANAGER_Initialize:	
  4197                           ; 1 bytes @ 0x0
  4198                           
  4199  0070                     ??_PIN_MANAGER_Initialize:	
  4200                           ; 1 bytes @ 0x0
  4201                           
  4202  0070                     ?_OSCILLATOR_Initialize:	
  4203                           ; 1 bytes @ 0x0
  4204                           
  4205  0070                     ??_OSCILLATOR_Initialize:	
  4206                           ; 1 bytes @ 0x0
  4207                           
  4208  0070                     ?_ADCC_Initialize:	
  4209                           ; 1 bytes @ 0x0
  4210                           
  4211  0070                     ??_ADCC_Initialize:	
  4212                           ; 1 bytes @ 0x0
  4213                           
  4214  0070                     ?_digitShow:	
  4215                           ; 1 bytes @ 0x0
  4216                           
  4217  0070                     ?_main:	
  4218                           ; 1 bytes @ 0x0
  4219                           
  4220  0070                     ?_CLC1_Initialize:	
  4221                           ; 1 bytes @ 0x0
  4222                           
  4223  0070                     ??_CLC1_Initialize:	
  4224                           ; 1 bytes @ 0x0
  4225                           
  4226  0070                     ?_TMR2_Initialize:	
  4227                           ; 1 bytes @ 0x0
  4228                           
  4229  0070                     ??_TMR2_Initialize:	
  4230                           ; 1 bytes @ 0x0
  4231                           
  4232  0070                     ?_ADCC_GetSingleConversion:	
  4233                           ; 1 bytes @ 0x0
  4234                           
  4235  0070                     ?___wmul:	
  4236                           ; 2 bytes @ 0x0
  4237                           
  4238  0070                     ___wmul@multiplier:	
  4239                           ; 2 bytes @ 0x0
  4240                           
  4241                           
  4242                           ; 2 bytes @ 0x0
  4243  0070                     	ds	2
  4244  0072                     ___wmul@multiplicand:	
  4245                           
  4246                           ; 2 bytes @ 0x2
  4247  0072                     	ds	1
  4248  0073                     ??_ADCC_GetSingleConversion:	
  4249  0073                     ADCC_GetSingleConversion@channel:	
  4250                           ; 1 bytes @ 0x3
  4251                           
  4252                           
  4253                           ; 1 bytes @ 0x3
  4254  0073                     	ds	1
  4255  0074                     ??___wmul:	
  4256  0074                     ___wmul@product:	
  4257                           ; 1 bytes @ 0x4
  4258                           
  4259                           
  4260                           ; 2 bytes @ 0x4
  4261  0074                     	ds	2
  4262  0076                     ??_digitShow:	
  4263                           
  4264                           ; 1 bytes @ 0x6
  4265  0076                     	ds	4
  4266  007A                     digitShow@value:	
  4267                           
  4268                           ; 1 bytes @ 0xA
  4269  007A                     	ds	1
  4270  007B                     digitShow@p:	
  4271                           
  4272                           ; 2 bytes @ 0xB
  4273  007B                     	ds	2
  4274                           
  4275                           	psect	cstackBANK0
  4276  005E                     __pcstackBANK0:	
  4277  005E                     ??_main:	
  4278                           
  4279                           ; 1 bytes @ 0x0
  4280  005E                     	ds	3
  4281  0061                     main@j:	
  4282                           
  4283                           ; 2 bytes @ 0x3
  4284  0061                     	ds	2
  4285  0063                     main@j_372:	
  4286                           
  4287                           ; 2 bytes @ 0x5
  4288  0063                     	ds	2
  4289  0065                     main@digit:	
  4290                           
  4291                           ; 1 bytes @ 0x7
  4292  0065                     	ds	1
  4293  0066                     main@i:	
  4294                           
  4295                           ; 2 bytes @ 0x8
  4296  0066                     	ds	2
  4297  0068                     main@i_371:	
  4298                           
  4299                           ; 2 bytes @ 0xA
  4300  0068                     	ds	2
  4301                           
  4302                           	psect	maintext
  4303  069D                     __pmaintext:	
  4304 ;;
  4305 ;;Main: autosize = 0, tempsize = 3, incstack = 0, save=0
  4306 ;;
  4307 ;; *************** function _main *****************
  4308 ;; Defined at:
  4309 ;;		line 107 in file "main.c"
  4310 ;; Parameters:    Size  Location     Type
  4311 ;;		None
  4312 ;; Auto vars:     Size  Location     Type
  4313 ;;  j               2    5[BANK0 ] int 
  4314 ;;  j               2    3[BANK0 ] int 
  4315 ;;  i               2   10[BANK0 ] int 
  4316 ;;  i               2    8[BANK0 ] int 
  4317 ;;  digit           1    7[BANK0 ] unsigned char 
  4318 ;; Return value:  Size  Location     Type
  4319 ;;                  1    wreg      void 
  4320 ;; Registers used:
  4321 ;;		wreg, fsr1l, fsr1h, status,2, status,0, pclath, cstack
  4322 ;; Tracked objects:
  4323 ;;		On entry : B1F/0
  4324 ;;		On exit  : 0/0
  4325 ;;		Unchanged: 0/0
  4326 ;; Data sizes:     COMMON   BANK0   BANK1   BANK2   BANK3   BANK4   BANK5   BANK6   BANK7   BANK8   BANK9  BANK10  BANK1
      +1  BANK12
  4327 ;;      Params:         0       0       0       0       0       0       0       0       0       0       0       0       
      +0       0
  4328 ;;      Locals:         0       9       0       0       0       0       0       0       0       0       0       0       
      +0       0
  4329 ;;      Temps:          0       3       0       0       0       0       0       0       0       0       0       0       
      +0       0
  4330 ;;      Totals:         0      12       0       0       0       0       0       0       0       0       0       0       
      +0       0
  4331 ;;Total ram usage:       12 bytes
  4332 ;; Hardware stack levels required when called:    2
  4333 ;; This function calls:
  4334 ;;		_ADCC_GetSingleConversion
  4335 ;;		_CLC1_OutputStatusGet
  4336 ;;		_SYSTEM_Initialize
  4337 ;;		_digitShow
  4338 ;; This function is called by:
  4339 ;;		Startup code after reset
  4340 ;; This function uses a non-reentrant model
  4341 ;;
  4342                           
  4343                           
  4344                           ;psect for function _main
  4345  069D                     _main:	
  4346                           
  4347                           ;main.c: 109:     uint8_t digit;;main.c: 112:     SYSTEM_Initialize();
  4348                           
  4349                           ;incstack = 0
  4350                           ; Regs used in _main: [wreg+fsr1l+fsr1h+status,2+status,0+pclath+cstack]
  4351  069D  3184  246C  3186   	fcall	_SYSTEM_Initialize
  4352                           
  4353                           ;main.c: 114:     LATBbits.LATB2 = 0;
  4354  06A0  0020               	movlb	0	; select bank0
  4355  06A1  1117               	bcf	23,2	;volatile
  4356  06A2  1697               	bsf	23,5	;volatile
  4357  06A3  1618               	bsf	24,4	;volatile
  4358  06A4  1698               	bsf	24,5	;volatile
  4359  06A5  1798               	bsf	24,7	;volatile
  4360  06A6  2F35               	goto	l190
  4361  06A7                     l1568:	
  4362                           
  4363                           ;main.c: 124:         for(int i = 0; i < 6; i++){
  4364  06A7  0020               	movlb	0	; select bank0
  4365  06A8  01E6               	clrf	main@i
  4366  06A9  01E7               	clrf	main@i+1
  4367  06AA                     l1574:	
  4368                           
  4369                           ;main.c: 125:             for(int j = 0; j < digit; j++){
  4370  06AA  0020               	movlb	0	; select bank0
  4371  06AB  01E1               	clrf	main@j
  4372  06AC  01E2               	clrf	main@j+1
  4373  06AD                     l1624:	
  4374  06AD  0862               	movf	main@j+1,w
  4375  06AE  3A80               	xorlw	128
  4376  06AF  00DE               	movwf	??_main
  4377  06B0  3080               	movlw	128
  4378  06B1  025E               	subwf	??_main,w
  4379  06B2  1D03               	skipz
  4380  06B3  2EB6               	goto	u275
  4381  06B4  0865               	movf	main@digit,w
  4382  06B5  0261               	subwf	main@j,w
  4383  06B6                     u275:	
  4384  06B6  1803               	btfsc	3,0
  4385  06B7  2F25               	goto	l1626
  4386                           
  4387                           ;main.c: 126:         if(CLC1_OutputStatusGet() == 0){
  4388  06B8  3184  242B  3186   	fcall	_CLC1_OutputStatusGet
  4389  06BB  3A00               	xorlw	0
  4390  06BC  1903               	btfsc	3,2
  4391  06BD  2F25               	goto	l1626
  4392                           
  4393                           ;main.c: 129:         digit = ADCC_GetSingleConversion(POT) >> 5;
  4394  06BE  3004               	movlw	4
  4395  06BF  3184  245C  3186   	fcall	_ADCC_GetSingleConversion
  4396  06C2  0870               	movf	?_ADCC_GetSingleConversion,w
  4397  06C3  0020               	movlb	0	; select bank0
  4398  06C4  00DE               	movwf	??_main
  4399  06C5  0871               	movf	?_ADCC_GetSingleConversion+1,w
  4400  06C6  00DF               	movwf	??_main+1
  4401  06C7  3005               	movlw	5
  4402  06C8                     u265:	
  4403  06C8  36DF               	lsrf	??_main+1,f
  4404  06C9  0CDE               	rrf	??_main,f
  4405  06CA  0B89               	decfsz	9,f
  4406  06CB  2EC8               	goto	u265
  4407  06CC  085E               	movf	??_main,w
  4408  06CD  00E0               	movwf	??_main+2
  4409  06CE  0860               	movf	??_main+2,w
  4410  06CF  00E5               	movwf	main@digit
  4411  06D0  1697               	bsf	23,5	;volatile
  4412                           
  4413                           ;main.c: 131:          digitShow(my_znum[i]);
  4414  06D1  3566               	lslf	main@i,w
  4415  06D2  3E44               	addlw	(low (_my_znum| 0))& (0+255)
  4416  06D3  0086               	movwf	6
  4417  06D4  0187               	clrf	7
  4418  06D5  0801               	movf	1,w
  4419  06D6  3185  2524  3186   	fcall	_digitShow
  4420                           
  4421                           ;main.c: 132:          _delay((unsigned long)((1)*(1000000/4000.0)));
  4422  06D9  3053               	movlw	83
  4423  06DA                     u347:	
  4424  06DA  0B89               	decfsz	9,f
  4425  06DB  2EDA               	goto	u347
  4426  06DC  0000               	nop
  4427  06DD  0020               	movlb	0	; select bank0
  4428  06DE  1398               	bcf	24,7	;volatile
  4429                           
  4430                           ;main.c: 134:          _delay((unsigned long)((5)*(1000000/4000.0)));
  4431  06DF  30FA               	movlw	250
  4432  06E0                     u357:	
  4433  06E0  3200               	nop2
  4434  06E1  0B89               	decfsz	9,f
  4435  06E2  2EE0               	goto	u357
  4436  06E3  0020               	movlb	0	; select bank0
  4437  06E4  1798               	bsf	24,7	;volatile
  4438                           
  4439                           ;main.c: 137:          digitShow(my_znum[i + 1]);
  4440  06E5  3566               	lslf	main@i,w
  4441  06E6  3E46               	addlw	(low ((_my_znum| 0+2)))& (0+255)
  4442  06E7  0086               	movwf	6
  4443  06E8  0187               	clrf	7
  4444  06E9  0801               	movf	1,w
  4445  06EA  3185  2524  3186   	fcall	_digitShow
  4446                           
  4447                           ;main.c: 138:          _delay((unsigned long)((1)*(1000000/4000.0)));
  4448  06ED  3053               	movlw	83
  4449  06EE                     u367:	
  4450  06EE  0B89               	decfsz	9,f
  4451  06EF  2EEE               	goto	u367
  4452  06F0  0000               	nop
  4453  06F1  0020               	movlb	0	; select bank0
  4454  06F2  1298               	bcf	24,5	;volatile
  4455                           
  4456                           ;main.c: 140:          _delay((unsigned long)((5)*(1000000/4000.0)));
  4457  06F3  30FA               	movlw	250
  4458  06F4                     u377:	
  4459  06F4  3200               	nop2
  4460  06F5  0B89               	decfsz	9,f
  4461  06F6  2EF4               	goto	u377
  4462  06F7  0020               	movlb	0	; select bank0
  4463  06F8  1698               	bsf	24,5	;volatile
  4464                           
  4465                           ;main.c: 143:          digitShow(my_znum[i + 2]);
  4466  06F9  3566               	lslf	main@i,w
  4467  06FA  3E48               	addlw	(low ((_my_znum| 0+4)))& (0+255)
  4468  06FB  0086               	movwf	6
  4469  06FC  0187               	clrf	7
  4470  06FD  0801               	movf	1,w
  4471  06FE  3185  2524  3186   	fcall	_digitShow
  4472                           
  4473                           ;main.c: 144:          _delay((unsigned long)((1)*(1000000/4000.0)));
  4474  0701  3053               	movlw	83
  4475  0702                     u387:	
  4476  0702  0B89               	decfsz	9,f
  4477  0703  2F02               	goto	u387
  4478  0704  0000               	nop
  4479  0705  0020               	movlb	0	; select bank0
  4480  0706  1218               	bcf	24,4	;volatile
  4481                           
  4482                           ;main.c: 146:          _delay((unsigned long)((5)*(1000000/4000.0)));
  4483  0707  30FA               	movlw	250
  4484  0708                     u397:	
  4485  0708  3200               	nop2
  4486  0709  0B89               	decfsz	9,f
  4487  070A  2F08               	goto	u397
  4488  070B  0020               	movlb	0	; select bank0
  4489  070C  1618               	bsf	24,4	;volatile
  4490                           
  4491                           ;main.c: 149:          digitShow(my_znum[i + 3]);
  4492  070D  3566               	lslf	main@i,w
  4493  070E  3E4A               	addlw	(low ((_my_znum| 0+6)))& (0+255)
  4494  070F  0086               	movwf	6
  4495  0710  0187               	clrf	7
  4496  0711  0801               	movf	1,w
  4497  0712  3185  2524  3186   	fcall	_digitShow
  4498                           
  4499                           ;main.c: 150:          _delay((unsigned long)((1)*(1000000/4000.0)));
  4500  0715  3053               	movlw	83
  4501  0716                     u407:	
  4502  0716  0B89               	decfsz	9,f
  4503  0717  2F16               	goto	u407
  4504  0718  0000               	nop
  4505  0719  0020               	movlb	0	; select bank0
  4506  071A  1297               	bcf	23,5	;volatile
  4507                           
  4508                           ;main.c: 152:          _delay((unsigned long)((5)*(1000000/4000.0)));
  4509  071B  30FA               	movlw	250
  4510  071C                     u417:	
  4511  071C  3200               	nop2
  4512  071D  0B89               	decfsz	9,f
  4513  071E  2F1C               	goto	u417
  4514                           
  4515                           ;main.c: 153:             }
  4516  071F  3001               	movlw	1
  4517  0720  0020               	movlb	0	; select bank0
  4518  0721  07E1               	addwf	main@j,f
  4519  0722  3000               	movlw	0
  4520  0723  3DE2               	addwfc	main@j+1,f
  4521  0724  2EAD               	goto	l1624
  4522  0725                     l1626:	
  4523                           
  4524                           ;main.c: 154:         }
  4525  0725  3001               	movlw	1
  4526  0726  0020               	movlb	0	; select bank0
  4527  0727  07E6               	addwf	main@i,f
  4528  0728  3000               	movlw	0
  4529  0729  3DE7               	addwfc	main@i+1,f
  4530  072A  0867               	movf	main@i+1,w
  4531  072B  3A80               	xorlw	128
  4532  072C  00DE               	movwf	??_main
  4533  072D  3080               	movlw	128
  4534  072E  025E               	subwf	??_main,w
  4535  072F  1D03               	skipz
  4536  0730  2F33               	goto	u285
  4537  0731  3006               	movlw	6
  4538  0732  0266               	subwf	main@i,w
  4539  0733                     u285:	
  4540  0733  1C03               	skipc
  4541  0734  2EAA               	goto	l1574
  4542  0735                     l190:	
  4543                           ;main.c: 121:     while(1){
  4544                           
  4545                           
  4546                           ;main.c: 122:         digit = ADCC_GetSingleConversion(POT) >> 5;
  4547  0735  3004               	movlw	4
  4548  0736  3184  245C  3186   	fcall	_ADCC_GetSingleConversion
  4549  0739  0870               	movf	?_ADCC_GetSingleConversion,w
  4550  073A  0020               	movlb	0	; select bank0
  4551  073B  00DE               	movwf	??_main
  4552  073C  0871               	movf	?_ADCC_GetSingleConversion+1,w
  4553  073D  00DF               	movwf	??_main+1
  4554  073E  3005               	movlw	5
  4555  073F                     u235:	
  4556  073F  36DF               	lsrf	??_main+1,f
  4557  0740  0CDE               	rrf	??_main,f
  4558  0741  0B89               	decfsz	9,f
  4559  0742  2F3F               	goto	u235
  4560  0743  085E               	movf	??_main,w
  4561  0744  00E0               	movwf	??_main+2
  4562  0745  0860               	movf	??_main+2,w
  4563  0746  00E5               	movwf	main@digit
  4564                           
  4565                           ;main.c: 123:         if(CLC1_OutputStatusGet() == 1){
  4566  0747  3184  242B  3186   	fcall	_CLC1_OutputStatusGet
  4567  074A  3A01               	xorlw	1
  4568  074B  1903               	btfsc	3,2
  4569  074C  2EA7               	goto	l1568
  4570  074D  3184  242B  3186   	fcall	_CLC1_OutputStatusGet
  4571  0750  3A00               	xorlw	0
  4572  0751  1D03               	skipz
  4573  0752  2F35               	goto	l190
  4574                           
  4575                           ;main.c: 157:         for(int i = 0; i < 11; i++){
  4576  0753  0020               	movlb	0	; select bank0
  4577  0754  01E8               	clrf	main@i_371
  4578  0755  01E9               	clrf	main@i_371+1
  4579  0756                     l1636:	
  4580                           
  4581                           ;main.c: 158:             for(int j = 0; j < digit; j++){
  4582  0756  0020               	movlb	0	; select bank0
  4583  0757  01E3               	clrf	main@j_372
  4584  0758  01E4               	clrf	main@j_372+1
  4585  0759                     l1686:	
  4586  0759  0864               	movf	main@j_372+1,w
  4587  075A  3A80               	xorlw	128
  4588  075B  00DE               	movwf	??_main
  4589  075C  3080               	movlw	128
  4590  075D  025E               	subwf	??_main,w
  4591  075E  1D03               	skipz
  4592  075F  2F62               	goto	u325
  4593  0760  0865               	movf	main@digit,w
  4594  0761  0263               	subwf	main@j_372,w
  4595  0762                     u325:	
  4596  0762  1803               	btfsc	3,0
  4597  0763  2FD1               	goto	l1688
  4598                           
  4599                           ;main.c: 159:         if(CLC1_OutputStatusGet() == 1){
  4600  0764  3184  242B  3186   	fcall	_CLC1_OutputStatusGet
  4601  0767  3A01               	xorlw	1
  4602  0768  1903               	btfsc	3,2
  4603  0769  2FD1               	goto	l1688
  4604                           
  4605                           ;main.c: 162:         digit = ADCC_GetSingleConversion(POT) >> 5;
  4606  076A  3004               	movlw	4
  4607  076B  3184  245C  3186   	fcall	_ADCC_GetSingleConversion
  4608  076E  0870               	movf	?_ADCC_GetSingleConversion,w
  4609  076F  0020               	movlb	0	; select bank0
  4610  0770  00DE               	movwf	??_main
  4611  0771  0871               	movf	?_ADCC_GetSingleConversion+1,w
  4612  0772  00DF               	movwf	??_main+1
  4613  0773  3005               	movlw	5
  4614  0774                     u315:	
  4615  0774  36DF               	lsrf	??_main+1,f
  4616  0775  0CDE               	rrf	??_main,f
  4617  0776  0B89               	decfsz	9,f
  4618  0777  2F74               	goto	u315
  4619  0778  085E               	movf	??_main,w
  4620  0779  00E0               	movwf	??_main+2
  4621  077A  0860               	movf	??_main+2,w
  4622  077B  00E5               	movwf	main@digit
  4623  077C  1697               	bsf	23,5	;volatile
  4624                           
  4625                           ;main.c: 164:          digitShow(my_name[i]);
  4626  077D  3568               	lslf	main@i_371,w
  4627  077E  3E20               	addlw	(low (_my_name| 0))& (0+255)
  4628  077F  0086               	movwf	6
  4629  0780  0187               	clrf	7
  4630  0781  0801               	movf	1,w
  4631  0782  3185  2524  3186   	fcall	_digitShow
  4632                           
  4633                           ;main.c: 165:          _delay((unsigned long)((1)*(1000000/4000.0)));
  4634  0785  3053               	movlw	83
  4635  0786                     u427:	
  4636  0786  0B89               	decfsz	9,f
  4637  0787  2F86               	goto	u427
  4638  0788  0000               	nop
  4639  0789  0020               	movlb	0	; select bank0
  4640  078A  1398               	bcf	24,7	;volatile
  4641                           
  4642                           ;main.c: 167:          _delay((unsigned long)((5)*(1000000/4000.0)));
  4643  078B  30FA               	movlw	250
  4644  078C                     u437:	
  4645  078C  3200               	nop2
  4646  078D  0B89               	decfsz	9,f
  4647  078E  2F8C               	goto	u437
  4648  078F  0020               	movlb	0	; select bank0
  4649  0790  1798               	bsf	24,7	;volatile
  4650                           
  4651                           ;main.c: 170:          digitShow(my_name[i + 1]);
  4652  0791  3568               	lslf	main@i_371,w
  4653  0792  3E22               	addlw	(low ((_my_name| 0+2)))& (0+255)
  4654  0793  0086               	movwf	6
  4655  0794  0187               	clrf	7
  4656  0795  0801               	movf	1,w
  4657  0796  3185  2524  3186   	fcall	_digitShow
  4658                           
  4659                           ;main.c: 171:          _delay((unsigned long)((1)*(1000000/4000.0)));
  4660  0799  3053               	movlw	83
  4661  079A                     u447:	
  4662  079A  0B89               	decfsz	9,f
  4663  079B  2F9A               	goto	u447
  4664  079C  0000               	nop
  4665  079D  0020               	movlb	0	; select bank0
  4666  079E  1298               	bcf	24,5	;volatile
  4667                           
  4668                           ;main.c: 173:          _delay((unsigned long)((5)*(1000000/4000.0)));
  4669  079F  30FA               	movlw	250
  4670  07A0                     u457:	
  4671  07A0  3200               	nop2
  4672  07A1  0B89               	decfsz	9,f
  4673  07A2  2FA0               	goto	u457
  4674  07A3  0020               	movlb	0	; select bank0
  4675  07A4  1698               	bsf	24,5	;volatile
  4676                           
  4677                           ;main.c: 176:          digitShow(my_name[i + 2]);
  4678  07A5  3568               	lslf	main@i_371,w
  4679  07A6  3E24               	addlw	(low ((_my_name| 0+4)))& (0+255)
  4680  07A7  0086               	movwf	6
  4681  07A8  0187               	clrf	7
  4682  07A9  0801               	movf	1,w
  4683  07AA  3185  2524  3186   	fcall	_digitShow
  4684                           
  4685                           ;main.c: 177:          _delay((unsigned long)((1)*(1000000/4000.0)));
  4686  07AD  3053               	movlw	83
  4687  07AE                     u467:	
  4688  07AE  0B89               	decfsz	9,f
  4689  07AF  2FAE               	goto	u467
  4690  07B0  0000               	nop
  4691  07B1  0020               	movlb	0	; select bank0
  4692  07B2  1218               	bcf	24,4	;volatile
  4693                           
  4694                           ;main.c: 179:          _delay((unsigned long)((5)*(1000000/4000.0)));
  4695  07B3  30FA               	movlw	250
  4696  07B4                     u477:	
  4697  07B4  3200               	nop2
  4698  07B5  0B89               	decfsz	9,f
  4699  07B6  2FB4               	goto	u477
  4700  07B7  0020               	movlb	0	; select bank0
  4701  07B8  1618               	bsf	24,4	;volatile
  4702                           
  4703                           ;main.c: 182:          digitShow(my_name[i + 3]);
  4704  07B9  3568               	lslf	main@i_371,w
  4705  07BA  3E26               	addlw	(low ((_my_name| 0+6)))& (0+255)
  4706  07BB  0086               	movwf	6
  4707  07BC  0187               	clrf	7
  4708  07BD  0801               	movf	1,w
  4709  07BE  3185  2524  3186   	fcall	_digitShow
  4710                           
  4711                           ;main.c: 183:          _delay((unsigned long)((1)*(1000000/4000.0)));
  4712  07C1  3053               	movlw	83
  4713  07C2                     u487:	
  4714  07C2  0B89               	decfsz	9,f
  4715  07C3  2FC2               	goto	u487
  4716  07C4  0000               	nop
  4717  07C5  0020               	movlb	0	; select bank0
  4718  07C6  1297               	bcf	23,5	;volatile
  4719                           
  4720                           ;main.c: 185:          _delay((unsigned long)((5)*(1000000/4000.0)));
  4721  07C7  30FA               	movlw	250
  4722  07C8                     u497:	
  4723  07C8  3200               	nop2
  4724  07C9  0B89               	decfsz	9,f
  4725  07CA  2FC8               	goto	u497
  4726                           
  4727                           ;main.c: 186:             }
  4728  07CB  3001               	movlw	1
  4729  07CC  0020               	movlb	0	; select bank0
  4730  07CD  07E3               	addwf	main@j_372,f
  4731  07CE  3000               	movlw	0
  4732  07CF  3DE4               	addwfc	main@j_372+1,f
  4733  07D0  2F59               	goto	l1686
  4734  07D1                     l1688:	
  4735                           
  4736                           ;main.c: 187:         }
  4737  07D1  3001               	movlw	1
  4738  07D2  0020               	movlb	0	; select bank0
  4739  07D3  07E8               	addwf	main@i_371,f
  4740  07D4  3000               	movlw	0
  4741  07D5  3DE9               	addwfc	main@i_371+1,f
  4742  07D6  0869               	movf	main@i_371+1,w
  4743  07D7  3A80               	xorlw	128
  4744  07D8  00DE               	movwf	??_main
  4745  07D9  3080               	movlw	128
  4746  07DA  025E               	subwf	??_main,w
  4747  07DB  1D03               	skipz
  4748  07DC  2FDF               	goto	u335
  4749  07DD  300B               	movlw	11
  4750  07DE  0268               	subwf	main@i_371,w
  4751  07DF                     u335:	
  4752  07DF  1803               	btfsc	3,0
  4753  07E0  2F35               	goto	l190
  4754  07E1  2F56               	goto	l1636
  4755  07E2                     __end_of_main:	
  4756                           
  4757                           	psect	text1
  4758  0524                     __ptext1:	
  4759 ;; *************** function _digitShow *****************
  4760 ;; Defined at:
  4761 ;;		line 89 in file "main.c"
  4762 ;; Parameters:    Size  Location     Type
  4763 ;;  value           1    wreg     unsigned char 
  4764 ;; Auto vars:     Size  Location     Type
  4765 ;;  value           1   10[COMMON] unsigned char 
  4766 ;;  p               2   11[COMMON] PTR unsigned char 
  4767 ;;		 -> matrix(259), 
  4768 ;; Return value:  Size  Location     Type
  4769 ;;                  1    wreg      void 
  4770 ;; Registers used:
  4771 ;;		wreg, fsr1l, fsr1h, status,2, status,0, pclath, cstack
  4772 ;; Tracked objects:
  4773 ;;		On entry : 0/0
  4774 ;;		On exit  : 0/0
  4775 ;;		Unchanged: 0/0
  4776 ;; Data sizes:     COMMON   BANK0   BANK1   BANK2   BANK3   BANK4   BANK5   BANK6   BANK7   BANK8   BANK9  BANK10  BANK1
      +1  BANK12
  4777 ;;      Params:         0       0       0       0       0       0       0       0       0       0       0       0       
      +0       0
  4778 ;;      Locals:         3       0       0       0       0       0       0       0       0       0       0       0       
      +0       0
  4779 ;;      Temps:          4       0       0       0       0       0       0       0       0       0       0       0       
      +0       0
  4780 ;;      Totals:         7       0       0       0       0       0       0       0       0       0       0       0       
      +0       0
  4781 ;;Total ram usage:        7 bytes
  4782 ;; Hardware stack levels used:    1
  4783 ;; Hardware stack levels required when called:    1
  4784 ;; This function calls:
  4785 ;;		___wmul
  4786 ;; This function is called by:
  4787 ;;		_main
  4788 ;; This function uses a non-reentrant model
  4789 ;;
  4790                           
  4791                           
  4792                           ;psect for function _digitShow
  4793  0524                     _digitShow:	
  4794                           
  4795                           ;incstack = 0
  4796                           ; Regs used in _digitShow: [wreg+fsr1l+fsr1h+status,2+status,0+pclath+cstack]
  4797                           ;digitShow@value stored from wreg
  4798  0524  00FA               	movwf	digitShow@value
  4799                           
  4800                           ;main.c: 89: void digitShow(uint8_t value);main.c: 90: {;main.c: 93:     uint8_t *p=&mat
      +                          rix[value*7];
  4801  0525  087A               	movf	digitShow@value,w
  4802  0526  00F6               	movwf	??_digitShow
  4803  0527  01F7               	clrf	??_digitShow+1
  4804  0528  0876               	movf	??_digitShow,w
  4805  0529  00F0               	movwf	___wmul@multiplier
  4806  052A  0877               	movf	??_digitShow+1,w
  4807  052B  00F1               	movwf	___wmul@multiplier+1
  4808  052C  3007               	movlw	7
  4809  052D  00F2               	movwf	___wmul@multiplicand
  4810  052E  3000               	movlw	0
  4811  052F  00F3               	movwf	___wmul@multiplicand+1
  4812  0530  3184  24A7  3185   	fcall	___wmul
  4813  0533  30ED               	movlw	237
  4814  0534  00F8               	movwf	??_digitShow+2
  4815  0535  3022               	movlw	34
  4816  0536  00F9               	movwf	??_digitShow+3
  4817  0537  0870               	movf	?___wmul,w
  4818  0538  0778               	addwf	??_digitShow+2,w
  4819  0539  00FB               	movwf	digitShow@p
  4820  053A  0871               	movf	?___wmul+1,w
  4821  053B  3D79               	addwfc	??_digitShow+3,w
  4822  053C  00FC               	movwf	digitShow@p+1
  4823                           
  4824                           ;main.c: 94:     LATCbits.LATC2 = *p++;
  4825  053D  087B               	movf	digitShow@p,w
  4826  053E  0086               	movwf	6
  4827  053F  087C               	movf	digitShow@p+1,w
  4828  0540  0087               	movwf	7
  4829  0541  0C01               	rrf	1,w
  4830  0542  0020               	movlb	0	; select bank0
  4831  0543  1C03               	skipc
  4832  0544  1118               	bcf	24,2	;volatile
  4833  0545  1803               	skipnc
  4834  0546  1518               	bsf	24,2	;volatile
  4835  0547  3001               	movlw	1
  4836  0548  07FB               	addwf	digitShow@p,f
  4837  0549  3000               	movlw	0
  4838  054A  3DFC               	addwfc	digitShow@p+1,f
  4839                           
  4840                           ;main.c: 95:     LATCbits.LATC3 = *p++;
  4841  054B  087B               	movf	digitShow@p,w
  4842  054C  0086               	movwf	6
  4843  054D  087C               	movf	digitShow@p+1,w
  4844  054E  0087               	movwf	7
  4845  054F  0C01               	rrf	1,w
  4846  0550  1C03               	skipc
  4847  0551  1198               	bcf	24,3	;volatile
  4848  0552  1803               	skipnc
  4849  0553  1598               	bsf	24,3	;volatile
  4850  0554  3001               	movlw	1
  4851  0555  07FB               	addwf	digitShow@p,f
  4852  0556  3000               	movlw	0
  4853  0557  3DFC               	addwfc	digitShow@p+1,f
  4854                           
  4855                           ;main.c: 96:     LATBbits.LATB3 = *p++;
  4856  0558  087B               	movf	digitShow@p,w
  4857  0559  0086               	movwf	6
  4858  055A  087C               	movf	digitShow@p+1,w
  4859  055B  0087               	movwf	7
  4860  055C  0C01               	rrf	1,w
  4861  055D  1C03               	skipc
  4862  055E  1197               	bcf	23,3	;volatile
  4863  055F  1803               	skipnc
  4864  0560  1597               	bsf	23,3	;volatile
  4865  0561  3001               	movlw	1
  4866  0562  07FB               	addwf	digitShow@p,f
  4867  0563  3000               	movlw	0
  4868  0564  3DFC               	addwfc	digitShow@p+1,f
  4869                           
  4870                           ;main.c: 97:     LATBbits.LATB1 = *p++;
  4871  0565  087B               	movf	digitShow@p,w
  4872  0566  0086               	movwf	6
  4873  0567  087C               	movf	digitShow@p+1,w
  4874  0568  0087               	movwf	7
  4875  0569  0C01               	rrf	1,w
  4876  056A  1C03               	skipc
  4877  056B  1097               	bcf	23,1	;volatile
  4878  056C  1803               	skipnc
  4879  056D  1497               	bsf	23,1	;volatile
  4880  056E  3001               	movlw	1
  4881  056F  07FB               	addwf	digitShow@p,f
  4882  0570  3000               	movlw	0
  4883  0571  3DFC               	addwfc	digitShow@p+1,f
  4884                           
  4885                           ;main.c: 98:     LATBbits.LATB0 = *p++;
  4886  0572  087B               	movf	digitShow@p,w
  4887  0573  0086               	movwf	6
  4888  0574  087C               	movf	digitShow@p+1,w
  4889  0575  0087               	movwf	7
  4890  0576  0C01               	rrf	1,w
  4891  0577  1C03               	skipc
  4892  0578  1017               	bcf	23,0	;volatile
  4893  0579  1803               	skipnc
  4894  057A  1417               	bsf	23,0	;volatile
  4895  057B  3001               	movlw	1
  4896  057C  07FB               	addwf	digitShow@p,f
  4897  057D  3000               	movlw	0
  4898  057E  3DFC               	addwfc	digitShow@p+1,f
  4899                           
  4900                           ;main.c: 99:     LATCbits.LATC6 = *p++;
  4901  057F  087B               	movf	digitShow@p,w
  4902  0580  0086               	movwf	6
  4903  0581  087C               	movf	digitShow@p+1,w
  4904  0582  0087               	movwf	7
  4905  0583  0C01               	rrf	1,w
  4906  0584  1C03               	skipc
  4907  0585  1318               	bcf	24,6	;volatile
  4908  0586  1803               	skipnc
  4909  0587  1718               	bsf	24,6	;volatile
  4910  0588  3001               	movlw	1
  4911  0589  07FB               	addwf	digitShow@p,f
  4912  058A  3000               	movlw	0
  4913  058B  3DFC               	addwfc	digitShow@p+1,f
  4914                           
  4915                           ;main.c: 100:     LATBbits.LATB4 = *p++;
  4916  058C  087B               	movf	digitShow@p,w
  4917  058D  0086               	movwf	6
  4918  058E  087C               	movf	digitShow@p+1,w
  4919  058F  0087               	movwf	7
  4920  0590  0C01               	rrf	1,w
  4921  0591  1C03               	skipc
  4922  0592  1217               	bcf	23,4	;volatile
  4923  0593  1803               	skipnc
  4924  0594  1617               	bsf	23,4	;volatile
  4925  0595  3001               	movlw	1
  4926  0596  07FB               	addwf	digitShow@p,f
  4927  0597  3000               	movlw	0
  4928  0598  3DFC               	addwfc	digitShow@p+1,f
  4929  0599  0008               	return
  4930  059A                     __end_of_digitShow:	
  4931                           
  4932                           	psect	text2
  4933  04A7                     __ptext2:	
  4934 ;; *************** function ___wmul *****************
  4935 ;; Defined at:
  4936 ;;		line 15 in file "C:\Program Files (x86)\Microchip\xc8\v2.05\pic\sources\c99\common\Umul16.c"
  4937 ;; Parameters:    Size  Location     Type
  4938 ;;  multiplier      2    0[COMMON] unsigned int 
  4939 ;;  multiplicand    2    2[COMMON] unsigned int 
  4940 ;; Auto vars:     Size  Location     Type
  4941 ;;  product         2    4[COMMON] unsigned int 
  4942 ;; Return value:  Size  Location     Type
  4943 ;;                  2    0[COMMON] unsigned int 
  4944 ;; Registers used:
  4945 ;;		wreg, status,2, status,0
  4946 ;; Tracked objects:
  4947 ;;		On entry : 0/0
  4948 ;;		On exit  : 0/0
  4949 ;;		Unchanged: 0/0
  4950 ;; Data sizes:     COMMON   BANK0   BANK1   BANK2   BANK3   BANK4   BANK5   BANK6   BANK7   BANK8   BANK9  BANK10  BANK1
      +1  BANK12
  4951 ;;      Params:         4       0       0       0       0       0       0       0       0       0       0       0       
      +0       0
  4952 ;;      Locals:         2       0       0       0       0       0       0       0       0       0       0       0       
      +0       0
  4953 ;;      Temps:          0       0       0       0       0       0       0       0       0       0       0       0       
      +0       0
  4954 ;;      Totals:         6       0       0       0       0       0       0       0       0       0       0       0       
      +0       0
  4955 ;;Total ram usage:        6 bytes
  4956 ;; Hardware stack levels used:    1
  4957 ;; This function calls:
  4958 ;;		Nothing
  4959 ;; This function is called by:
  4960 ;;		_digitShow
  4961 ;; This function uses a non-reentrant model
  4962 ;;
  4963                           
  4964                           
  4965                           ;psect for function ___wmul
  4966  04A7                     ___wmul:	
  4967                           
  4968                           ;incstack = 0
  4969                           ; Regs used in ___wmul: [wreg+status,2+status,0]
  4970  04A7  01F4               	clrf	___wmul@product
  4971  04A8  01F5               	clrf	___wmul@product+1
  4972  04A9                     l1484:	
  4973  04A9  1C70               	btfss	___wmul@multiplier,0
  4974  04AA  2CAF               	goto	l576
  4975  04AB  0872               	movf	___wmul@multiplicand,w
  4976  04AC  07F4               	addwf	___wmul@product,f
  4977  04AD  0873               	movf	___wmul@multiplicand+1,w
  4978  04AE  3DF5               	addwfc	___wmul@product+1,f
  4979  04AF                     l576:	
  4980  04AF  3001               	movlw	1
  4981  04B0                     u195:	
  4982  04B0  35F2               	lslf	___wmul@multiplicand,f
  4983  04B1  0DF3               	rlf	___wmul@multiplicand+1,f
  4984  04B2  0B89               	decfsz	9,f
  4985  04B3  2CB0               	goto	u195
  4986  04B4  3001               	movlw	1
  4987  04B5                     u205:	
  4988  04B5  36F1               	lsrf	___wmul@multiplier+1,f
  4989  04B6  0CF0               	rrf	___wmul@multiplier,f
  4990  04B7  0B89               	decfsz	9,f
  4991  04B8  2CB5               	goto	u205
  4992  04B9  0870               	movf	___wmul@multiplier,w
  4993  04BA  0471               	iorwf	___wmul@multiplier+1,w
  4994  04BB  1D03               	btfss	3,2
  4995  04BC  2CA9               	goto	l1484
  4996  04BD  0875               	movf	___wmul@product+1,w
  4997  04BE  00F1               	movwf	?___wmul+1
  4998  04BF  0874               	movf	___wmul@product,w
  4999  04C0  00F0               	movwf	?___wmul
  5000  04C1  0008               	return
  5001  04C2                     __end_of___wmul:	
  5002                           
  5003                           	psect	text3
  5004  046C                     __ptext3:	
  5005 ;; *************** function _SYSTEM_Initialize *****************
  5006 ;; Defined at:
  5007 ;;		line 50 in file "mcc_generated_files/mcc.c"
  5008 ;; Parameters:    Size  Location     Type
  5009 ;;		None
  5010 ;; Auto vars:     Size  Location     Type
  5011 ;;		None
  5012 ;; Return value:  Size  Location     Type
  5013 ;;                  1    wreg      void 
  5014 ;; Registers used:
  5015 ;;		wreg, status,2, status,0, pclath, cstack
  5016 ;; Tracked objects:
  5017 ;;		On entry : 0/0
  5018 ;;		On exit  : 0/0
  5019 ;;		Unchanged: 0/0
  5020 ;; Data sizes:     COMMON   BANK0   BANK1   BANK2   BANK3   BANK4   BANK5   BANK6   BANK7   BANK8   BANK9  BANK10  BANK1
      +1  BANK12
  5021 ;;      Params:         0       0       0       0       0       0       0       0       0       0       0       0       
      +0       0
  5022 ;;      Locals:         0       0       0       0       0       0       0       0       0       0       0       0       
      +0       0
  5023 ;;      Temps:          0       0       0       0       0       0       0       0       0       0       0       0       
      +0       0
  5024 ;;      Totals:         0       0       0       0       0       0       0       0       0       0       0       0       
      +0       0
  5025 ;;Total ram usage:        0 bytes
  5026 ;; Hardware stack levels used:    1
  5027 ;; Hardware stack levels required when called:    1
  5028 ;; This function calls:
  5029 ;;		_ADCC_Initialize
  5030 ;;		_CLC1_Initialize
  5031 ;;		_OSCILLATOR_Initialize
  5032 ;;		_PIN_MANAGER_Initialize
  5033 ;;		_PMD_Initialize
  5034 ;;		_TMR2_Initialize
  5035 ;; This function is called by:
  5036 ;;		_main
  5037 ;; This function uses a non-reentrant model
  5038 ;;
  5039                           
  5040                           
  5041                           ;psect for function _SYSTEM_Initialize
  5042  046C                     _SYSTEM_Initialize:	
  5043                           
  5044                           ;mcc_generated_files/mcc.c: 52:     PMD_Initialize();
  5045                           
  5046                           ;incstack = 0
  5047                           ; Regs used in _SYSTEM_Initialize: [wreg+status,2+status,0+pclath+cstack]
  5048  046C  3184  2430  3184   	fcall	_PMD_Initialize
  5049                           
  5050                           ;mcc_generated_files/mcc.c: 53:     PIN_MANAGER_Initialize();
  5051  046F  3184  24C2  3184   	fcall	_PIN_MANAGER_Initialize
  5052                           
  5053                           ;mcc_generated_files/mcc.c: 54:     OSCILLATOR_Initialize();
  5054  0472  3184  2438  3184   	fcall	_OSCILLATOR_Initialize
  5055                           
  5056                           ;mcc_generated_files/mcc.c: 55:     ADCC_Initialize();
  5057  0475  3184  2491  3184   	fcall	_ADCC_Initialize
  5058                           
  5059                           ;mcc_generated_files/mcc.c: 56:     CLC1_Initialize();
  5060  0478  3184  247E  3184   	fcall	_CLC1_Initialize
  5061                           
  5062                           ;mcc_generated_files/mcc.c: 57:     TMR2_Initialize();
  5063  047B  3184  244D         	fcall	_TMR2_Initialize
  5064  047D  0008               	return
  5065  047E                     __end_of_SYSTEM_Initialize:	
  5066                           
  5067                           	psect	text4
  5068  044D                     __ptext4:	
  5069 ;; *************** function _TMR2_Initialize *****************
  5070 ;; Defined at:
  5071 ;;		line 62 in file "mcc_generated_files/tmr2.c"
  5072 ;; Parameters:    Size  Location     Type
  5073 ;;		None
  5074 ;; Auto vars:     Size  Location     Type
  5075 ;;		None
  5076 ;; Return value:  Size  Location     Type
  5077 ;;                  1    wreg      void 
  5078 ;; Registers used:
  5079 ;;		wreg, status,2
  5080 ;; Tracked objects:
  5081 ;;		On entry : 0/0
  5082 ;;		On exit  : 0/0
  5083 ;;		Unchanged: 0/0
  5084 ;; Data sizes:     COMMON   BANK0   BANK1   BANK2   BANK3   BANK4   BANK5   BANK6   BANK7   BANK8   BANK9  BANK10  BANK1
      +1  BANK12
  5085 ;;      Params:         0       0       0       0       0       0       0       0       0       0       0       0       
      +0       0
  5086 ;;      Locals:         0       0       0       0       0       0       0       0       0       0       0       0       
      +0       0
  5087 ;;      Temps:          0       0       0       0       0       0       0       0       0       0       0       0       
      +0       0
  5088 ;;      Totals:         0       0       0       0       0       0       0       0       0       0       0       0       
      +0       0
  5089 ;;Total ram usage:        0 bytes
  5090 ;; Hardware stack levels used:    1
  5091 ;; This function calls:
  5092 ;;		Nothing
  5093 ;; This function is called by:
  5094 ;;		_SYSTEM_Initialize
  5095 ;; This function uses a non-reentrant model
  5096 ;;
  5097                           
  5098                           
  5099                           ;psect for function _TMR2_Initialize
  5100  044D                     _TMR2_Initialize:	
  5101                           
  5102                           ;mcc_generated_files/tmr2.c: 67:     T2CLKCON = 0x01;
  5103                           
  5104                           ;incstack = 0
  5105                           ; Regs used in _TMR2_Initialize: [wreg+status,2]
  5106  044D  3001               	movlw	1
  5107  044E  0025               	movlb	5	; select bank5
  5108  044F  0090               	movwf	16	;volatile
  5109                           
  5110                           ;mcc_generated_files/tmr2.c: 70:     T2HLT = 0x11;
  5111  0450  3011               	movlw	17
  5112  0451  008F               	movwf	15	;volatile
  5113                           
  5114                           ;mcc_generated_files/tmr2.c: 73:     T2RST = 0x00;
  5115  0452  0191               	clrf	17	;volatile
  5116                           
  5117                           ;mcc_generated_files/tmr2.c: 76:     T2PR = 0xC2;
  5118  0453  30C2               	movlw	194
  5119  0454  008D               	movwf	13	;volatile
  5120                           
  5121                           ;mcc_generated_files/tmr2.c: 79:     T2TMR = 0x00;
  5122  0455  018C               	clrf	12	;volatile
  5123                           
  5124                           ;mcc_generated_files/tmr2.c: 82:     PIR4bits.TMR2IF = 0;
  5125  0456  002E               	movlb	14	; select bank14
  5126  0457  1090               	bcf	16,1	;volatile
  5127                           
  5128                           ;mcc_generated_files/tmr2.c: 85:     T2CON = 0xF0;
  5129  0458  30F0               	movlw	240
  5130  0459  0025               	movlb	5	; select bank5
  5131  045A  008E               	movwf	14	;volatile
  5132  045B  0008               	return
  5133  045C                     __end_of_TMR2_Initialize:	
  5134                           
  5135                           	psect	text5
  5136  0430                     __ptext5:	
  5137 ;; *************** function _PMD_Initialize *****************
  5138 ;; Defined at:
  5139 ;;		line 74 in file "mcc_generated_files/mcc.c"
  5140 ;; Parameters:    Size  Location     Type
  5141 ;;		None
  5142 ;; Auto vars:     Size  Location     Type
  5143 ;;		None
  5144 ;; Return value:  Size  Location     Type
  5145 ;;                  1    wreg      void 
  5146 ;; Registers used:
  5147 ;;		status,2
  5148 ;; Tracked objects:
  5149 ;;		On entry : 0/0
  5150 ;;		On exit  : 0/0
  5151 ;;		Unchanged: 0/0
  5152 ;; Data sizes:     COMMON   BANK0   BANK1   BANK2   BANK3   BANK4   BANK5   BANK6   BANK7   BANK8   BANK9  BANK10  BANK1
      +1  BANK12
  5153 ;;      Params:         0       0       0       0       0       0       0       0       0       0       0       0       
      +0       0
  5154 ;;      Locals:         0       0       0       0       0       0       0       0       0       0       0       0       
      +0       0
  5155 ;;      Temps:          0       0       0       0       0       0       0       0       0       0       0       0       
      +0       0
  5156 ;;      Totals:         0       0       0       0       0       0       0       0       0       0       0       0       
      +0       0
  5157 ;;Total ram usage:        0 bytes
  5158 ;; Hardware stack levels used:    1
  5159 ;; This function calls:
  5160 ;;		Nothing
  5161 ;; This function is called by:
  5162 ;;		_SYSTEM_Initialize
  5163 ;; This function uses a non-reentrant model
  5164 ;;
  5165                           
  5166                           
  5167                           ;psect for function _PMD_Initialize
  5168  0430                     _PMD_Initialize:	
  5169                           
  5170                           ;mcc_generated_files/mcc.c: 77:     PMD0 = 0x00;
  5171                           
  5172                           ;incstack = 0
  5173                           ; Regs used in _PMD_Initialize: [status,2]
  5174  0430  002F               	movlb	15	; select bank15
  5175  0431  0196               	clrf	22	;volatile
  5176                           
  5177                           ;mcc_generated_files/mcc.c: 79:     PMD1 = 0x00;
  5178  0432  0197               	clrf	23	;volatile
  5179                           
  5180                           ;mcc_generated_files/mcc.c: 81:     PMD2 = 0x00;
  5181  0433  0198               	clrf	24	;volatile
  5182                           
  5183                           ;mcc_generated_files/mcc.c: 83:     PMD3 = 0x00;
  5184  0434  0199               	clrf	25	;volatile
  5185                           
  5186                           ;mcc_generated_files/mcc.c: 85:     PMD4 = 0x00;
  5187  0435  019A               	clrf	26	;volatile
  5188                           
  5189                           ;mcc_generated_files/mcc.c: 87:     PMD5 = 0x00;
  5190  0436  019B               	clrf	27	;volatile
  5191  0437  0008               	return
  5192  0438                     __end_of_PMD_Initialize:	
  5193                           
  5194                           	psect	text6
  5195  04C2                     __ptext6:	
  5196 ;; *************** function _PIN_MANAGER_Initialize *****************
  5197 ;; Defined at:
  5198 ;;		line 55 in file "mcc_generated_files/pin_manager.c"
  5199 ;; Parameters:    Size  Location     Type
  5200 ;;		None
  5201 ;; Auto vars:     Size  Location     Type
  5202 ;;		None
  5203 ;; Return value:  Size  Location     Type
  5204 ;;                  1    wreg      void 
  5205 ;; Registers used:
  5206 ;;		wreg, status,2
  5207 ;; Tracked objects:
  5208 ;;		On entry : 0/0
  5209 ;;		On exit  : 0/0
  5210 ;;		Unchanged: 0/0
  5211 ;; Data sizes:     COMMON   BANK0   BANK1   BANK2   BANK3   BANK4   BANK5   BANK6   BANK7   BANK8   BANK9  BANK10  BANK1
      +1  BANK12
  5212 ;;      Params:         0       0       0       0       0       0       0       0       0       0       0       0       
      +0       0
  5213 ;;      Locals:         0       0       0       0       0       0       0       0       0       0       0       0       
      +0       0
  5214 ;;      Temps:          0       0       0       0       0       0       0       0       0       0       0       0       
      +0       0
  5215 ;;      Totals:         0       0       0       0       0       0       0       0       0       0       0       0       
      +0       0
  5216 ;;Total ram usage:        0 bytes
  5217 ;; Hardware stack levels used:    1
  5218 ;; This function calls:
  5219 ;;		Nothing
  5220 ;; This function is called by:
  5221 ;;		_SYSTEM_Initialize
  5222 ;; This function uses a non-reentrant model
  5223 ;;
  5224                           
  5225                           
  5226                           ;psect for function _PIN_MANAGER_Initialize
  5227  04C2                     _PIN_MANAGER_Initialize:	
  5228                           
  5229                           ;mcc_generated_files/pin_manager.c: 60:     LATA = 0x00;
  5230                           
  5231                           ;incstack = 0
  5232                           ; Regs used in _PIN_MANAGER_Initialize: [wreg+status,2]
  5233  04C2  0020               	movlb	0	; select bank0
  5234  04C3  0196               	clrf	22	;volatile
  5235                           
  5236                           ;mcc_generated_files/pin_manager.c: 61:     LATB = 0x3F;
  5237  04C4  303F               	movlw	63
  5238  04C5  0097               	movwf	23	;volatile
  5239                           
  5240                           ;mcc_generated_files/pin_manager.c: 62:     LATC = 0xFC;
  5241  04C6  30FC               	movlw	252
  5242  04C7  0098               	movwf	24	;volatile
  5243                           
  5244                           ;mcc_generated_files/pin_manager.c: 67:     TRISA = 0xFF;
  5245  04C8  30FF               	movlw	255
  5246  04C9  0091               	movwf	17	;volatile
  5247                           
  5248                           ;mcc_generated_files/pin_manager.c: 68:     TRISB = 0xC0;
  5249  04CA  30C0               	movlw	192
  5250  04CB  0092               	movwf	18	;volatile
  5251                           
  5252                           ;mcc_generated_files/pin_manager.c: 69:     TRISC = 0x03;
  5253  04CC  3003               	movlw	3
  5254  04CD  0093               	movwf	19	;volatile
  5255                           
  5256                           ;mcc_generated_files/pin_manager.c: 74:     ANSELC = 0xFF;
  5257  04CE  30FF               	movlw	255
  5258  04CF  003E               	movlb	30	; select bank30
  5259  04D0  00CE               	movwf	78	;volatile
  5260                           
  5261                           ;mcc_generated_files/pin_manager.c: 75:     ANSELB = 0xFF;
  5262  04D1  30FF               	movlw	255
  5263  04D2  00C3               	movwf	67	;volatile
  5264                           
  5265                           ;mcc_generated_files/pin_manager.c: 76:     ANSELA = 0xDF;
  5266  04D3  30DF               	movlw	223
  5267  04D4  00B8               	movwf	56	;volatile
  5268                           
  5269                           ;mcc_generated_files/pin_manager.c: 81:     WPUE = 0x00;
  5270  04D5  01E5               	clrf	101	;volatile
  5271                           
  5272                           ;mcc_generated_files/pin_manager.c: 82:     WPUB = 0x00;
  5273  04D6  01C4               	clrf	68	;volatile
  5274                           
  5275                           ;mcc_generated_files/pin_manager.c: 83:     WPUA = 0x00;
  5276  04D7  01B9               	clrf	57	;volatile
  5277                           
  5278                           ;mcc_generated_files/pin_manager.c: 84:     WPUC = 0x00;
  5279  04D8  01CF               	clrf	79	;volatile
  5280                           
  5281                           ;mcc_generated_files/pin_manager.c: 89:     ODCONA = 0x00;
  5282  04D9  01BA               	clrf	58	;volatile
  5283                           
  5284                           ;mcc_generated_files/pin_manager.c: 90:     ODCONB = 0x00;
  5285  04DA  01C5               	clrf	69	;volatile
  5286                           
  5287                           ;mcc_generated_files/pin_manager.c: 91:     ODCONC = 0x00;
  5288  04DB  01D0               	clrf	80	;volatile
  5289                           
  5290                           ;mcc_generated_files/pin_manager.c: 96:     SLRCONA = 0xFF;
  5291  04DC  30FF               	movlw	255
  5292  04DD  00BB               	movwf	59	;volatile
  5293                           
  5294                           ;mcc_generated_files/pin_manager.c: 97:     SLRCONB = 0xFF;
  5295  04DE  30FF               	movlw	255
  5296  04DF  00C6               	movwf	70	;volatile
  5297                           
  5298                           ;mcc_generated_files/pin_manager.c: 98:     SLRCONC = 0xFF;
  5299  04E0  30FF               	movlw	255
  5300  04E1  00D1               	movwf	81	;volatile
  5301                           
  5302                           ;mcc_generated_files/pin_manager.c: 107:     T2AINPPS = 0x05;
  5303  04E2  3005               	movlw	5
  5304  04E3  003D               	movlb	29	; select bank29
  5305  04E4  009C               	movwf	28	;volatile
  5306  04E5  0008               	return
  5307  04E6                     __end_of_PIN_MANAGER_Initialize:	
  5308                           
  5309                           	psect	text7
  5310  0438                     __ptext7:	
  5311 ;; *************** function _OSCILLATOR_Initialize *****************
  5312 ;; Defined at:
  5313 ;;		line 60 in file "mcc_generated_files/mcc.c"
  5314 ;; Parameters:    Size  Location     Type
  5315 ;;		None
  5316 ;; Auto vars:     Size  Location     Type
  5317 ;;		None
  5318 ;; Return value:  Size  Location     Type
  5319 ;;                  1    wreg      void 
  5320 ;; Registers used:
  5321 ;;		wreg, status,2
  5322 ;; Tracked objects:
  5323 ;;		On entry : 0/0
  5324 ;;		On exit  : 0/0
  5325 ;;		Unchanged: 0/0
  5326 ;; Data sizes:     COMMON   BANK0   BANK1   BANK2   BANK3   BANK4   BANK5   BANK6   BANK7   BANK8   BANK9  BANK10  BANK1
      +1  BANK12
  5327 ;;      Params:         0       0       0       0       0       0       0       0       0       0       0       0       
      +0       0
  5328 ;;      Locals:         0       0       0       0       0       0       0       0       0       0       0       0       
      +0       0
  5329 ;;      Temps:          0       0       0       0       0       0       0       0       0       0       0       0       
      +0       0
  5330 ;;      Totals:         0       0       0       0       0       0       0       0       0       0       0       0       
      +0       0
  5331 ;;Total ram usage:        0 bytes
  5332 ;; Hardware stack levels used:    1
  5333 ;; This function calls:
  5334 ;;		Nothing
  5335 ;; This function is called by:
  5336 ;;		_SYSTEM_Initialize
  5337 ;; This function uses a non-reentrant model
  5338 ;;
  5339                           
  5340                           
  5341                           ;psect for function _OSCILLATOR_Initialize
  5342  0438                     _OSCILLATOR_Initialize:	
  5343                           
  5344                           ;mcc_generated_files/mcc.c: 63:     OSCCON1 = 0x62;
  5345                           
  5346                           ;incstack = 0
  5347                           ; Regs used in _OSCILLATOR_Initialize: [wreg+status,2]
  5348  0438  3062               	movlw	98
  5349  0439  0031               	movlb	17	; select bank17
  5350  043A  008D               	movwf	13	;volatile
  5351                           
  5352                           ;mcc_generated_files/mcc.c: 65:     OSCCON3 = 0x00;
  5353  043B  018F               	clrf	15	;volatile
  5354                           
  5355                           ;mcc_generated_files/mcc.c: 67:     OSCEN = 0x00;
  5356  043C  0191               	clrf	17	;volatile
  5357                           
  5358                           ;mcc_generated_files/mcc.c: 69:     OSCFRQ = 0x02;
  5359  043D  3002               	movlw	2
  5360  043E  0093               	movwf	19	;volatile
  5361                           
  5362                           ;mcc_generated_files/mcc.c: 71:     OSCTUNE = 0x00;
  5363  043F  0192               	clrf	18	;volatile
  5364  0440  0008               	return
  5365  0441                     __end_of_OSCILLATOR_Initialize:	
  5366                           
  5367                           	psect	text8
  5368  047E                     __ptext8:	
  5369 ;; *************** function _CLC1_Initialize *****************
  5370 ;; Defined at:
  5371 ;;		line 58 in file "mcc_generated_files/clc1.c"
  5372 ;; Parameters:    Size  Location     Type
  5373 ;;		None
  5374 ;; Auto vars:     Size  Location     Type
  5375 ;;		None
  5376 ;; Return value:  Size  Location     Type
  5377 ;;                  1    wreg      void 
  5378 ;; Registers used:
  5379 ;;		wreg, status,2
  5380 ;; Tracked objects:
  5381 ;;		On entry : 0/0
  5382 ;;		On exit  : 0/0
  5383 ;;		Unchanged: 0/0
  5384 ;; Data sizes:     COMMON   BANK0   BANK1   BANK2   BANK3   BANK4   BANK5   BANK6   BANK7   BANK8   BANK9  BANK10  BANK1
      +1  BANK12
  5385 ;;      Params:         0       0       0       0       0       0       0       0       0       0       0       0       
      +0       0
  5386 ;;      Locals:         0       0       0       0       0       0       0       0       0       0       0       0       
      +0       0
  5387 ;;      Temps:          0       0       0       0       0       0       0       0       0       0       0       0       
      +0       0
  5388 ;;      Totals:         0       0       0       0       0       0       0       0       0       0       0       0       
      +0       0
  5389 ;;Total ram usage:        0 bytes
  5390 ;; Hardware stack levels used:    1
  5391 ;; This function calls:
  5392 ;;		Nothing
  5393 ;; This function is called by:
  5394 ;;		_SYSTEM_Initialize
  5395 ;; This function uses a non-reentrant model
  5396 ;;
  5397                           
  5398                           
  5399                           ;psect for function _CLC1_Initialize
  5400  047E                     _CLC1_Initialize:	
  5401                           
  5402                           ;mcc_generated_files/clc1.c: 63:     CLC1POL = 0x0A;
  5403                           
  5404                           ;incstack = 0
  5405                           ; Regs used in _CLC1_Initialize: [wreg+status,2]
  5406  047E  300A               	movlw	10
  5407  047F  003C               	movlb	28	; select bank28
  5408  0480  0091               	movwf	17	;volatile
  5409                           
  5410                           ;mcc_generated_files/clc1.c: 65:     CLC1SEL0 = 0x0C;
  5411  0481  300C               	movlw	12
  5412  0482  0092               	movwf	18	;volatile
  5413                           
  5414                           ;mcc_generated_files/clc1.c: 67:     CLC1SEL1 = 0x0C;
  5415  0483  300C               	movlw	12
  5416  0484  0093               	movwf	19	;volatile
  5417                           
  5418                           ;mcc_generated_files/clc1.c: 69:     CLC1SEL2 = 0x0C;
  5419  0485  300C               	movlw	12
  5420  0486  0094               	movwf	20	;volatile
  5421                           
  5422                           ;mcc_generated_files/clc1.c: 71:     CLC1SEL3 = 0x0C;
  5423  0487  300C               	movlw	12
  5424  0488  0095               	movwf	21	;volatile
  5425                           
  5426                           ;mcc_generated_files/clc1.c: 73:     CLC1GLS0 = 0x02;
  5427  0489  3002               	movlw	2
  5428  048A  0096               	movwf	22	;volatile
  5429                           
  5430                           ;mcc_generated_files/clc1.c: 75:     CLC1GLS1 = 0x00;
  5431  048B  0197               	clrf	23	;volatile
  5432                           
  5433                           ;mcc_generated_files/clc1.c: 77:     CLC1GLS2 = 0x00;
  5434  048C  0198               	clrf	24	;volatile
  5435                           
  5436                           ;mcc_generated_files/clc1.c: 79:     CLC1GLS3 = 0x00;
  5437  048D  0199               	clrf	25	;volatile
  5438                           
  5439                           ;mcc_generated_files/clc1.c: 81:     CLC1CON = 0x86;
  5440  048E  3086               	movlw	134
  5441  048F  0090               	movwf	16	;volatile
  5442  0490  0008               	return
  5443  0491                     __end_of_CLC1_Initialize:	
  5444                           
  5445                           	psect	text9
  5446  0491                     __ptext9:	
  5447 ;; *************** function _ADCC_Initialize *****************
  5448 ;; Defined at:
  5449 ;;		line 63 in file "mcc_generated_files/adcc.c"
  5450 ;; Parameters:    Size  Location     Type
  5451 ;;		None
  5452 ;; Auto vars:     Size  Location     Type
  5453 ;;		None
  5454 ;; Return value:  Size  Location     Type
  5455 ;;                  1    wreg      void 
  5456 ;; Registers used:
  5457 ;;		wreg, status,2
  5458 ;; Tracked objects:
  5459 ;;		On entry : 0/0
  5460 ;;		On exit  : 0/0
  5461 ;;		Unchanged: 0/0
  5462 ;; Data sizes:     COMMON   BANK0   BANK1   BANK2   BANK3   BANK4   BANK5   BANK6   BANK7   BANK8   BANK9  BANK10  BANK1
      +1  BANK12
  5463 ;;      Params:         0       0       0       0       0       0       0       0       0       0       0       0       
      +0       0
  5464 ;;      Locals:         0       0       0       0       0       0       0       0       0       0       0       0       
      +0       0
  5465 ;;      Temps:          0       0       0       0       0       0       0       0       0       0       0       0       
      +0       0
  5466 ;;      Totals:         0       0       0       0       0       0       0       0       0       0       0       0       
      +0       0
  5467 ;;Total ram usage:        0 bytes
  5468 ;; Hardware stack levels used:    1
  5469 ;; This function calls:
  5470 ;;		Nothing
  5471 ;; This function is called by:
  5472 ;;		_SYSTEM_Initialize
  5473 ;; This function uses a non-reentrant model
  5474 ;;
  5475                           
  5476                           
  5477                           ;psect for function _ADCC_Initialize
  5478  0491                     _ADCC_Initialize:	
  5479                           
  5480                           ;mcc_generated_files/adcc.c: 67:     ADLTHL = 0x00;
  5481                           
  5482                           ;incstack = 0
  5483                           ; Regs used in _ADCC_Initialize: [wreg+status,2]
  5484  0491  0022               	movlb	2	; select bank2
  5485  0492  018E               	clrf	14	;volatile
  5486                           
  5487                           ;mcc_generated_files/adcc.c: 69:     ADLTHH = 0x00;
  5488  0493  018F               	clrf	15	;volatile
  5489                           
  5490                           ;mcc_generated_files/adcc.c: 71:     ADUTHL = 0x00;
  5491  0494  0190               	clrf	16	;volatile
  5492                           
  5493                           ;mcc_generated_files/adcc.c: 73:     ADUTHH = 0x00;
  5494  0495  0191               	clrf	17	;volatile
  5495                           
  5496                           ;mcc_generated_files/adcc.c: 75:     ADSTPTL = 0x00;
  5497  0496  0192               	clrf	18	;volatile
  5498                           
  5499                           ;mcc_generated_files/adcc.c: 77:     ADSTPTH = 0x00;
  5500  0497  0193               	clrf	19	;volatile
  5501                           
  5502                           ;mcc_generated_files/adcc.c: 79:     ADRPT = 0x00;
  5503  0498  018D               	clrf	13	;volatile
  5504                           
  5505                           ;mcc_generated_files/adcc.c: 81:     ADPCH = 0x00;
  5506  0499  0021               	movlb	1	; select bank1
  5507  049A  019E               	clrf	30	;volatile
  5508                           
  5509                           ;mcc_generated_files/adcc.c: 83:     ADCAP = 0x00;
  5510  049B  019B               	clrf	27	;volatile
  5511                           
  5512                           ;mcc_generated_files/adcc.c: 85:     ADCON1 = 0x00;
  5513  049C  0194               	clrf	20	;volatile
  5514                           
  5515                           ;mcc_generated_files/adcc.c: 87:     ADCON2 = 0x00;
  5516  049D  0195               	clrf	21	;volatile
  5517                           
  5518                           ;mcc_generated_files/adcc.c: 89:     ADCON3 = 0x00;
  5519  049E  0196               	clrf	22	;volatile
  5520                           
  5521                           ;mcc_generated_files/adcc.c: 91:     ADSTAT = 0x00;
  5522  049F  0197               	clrf	23	;volatile
  5523                           
  5524                           ;mcc_generated_files/adcc.c: 93:     ADREF = 0x00;
  5525  04A0  019A               	clrf	26	;volatile
  5526                           
  5527                           ;mcc_generated_files/adcc.c: 95:     ADACT = 0x00;
  5528  04A1  0199               	clrf	25	;volatile
  5529                           
  5530                           ;mcc_generated_files/adcc.c: 97:     ADCLK = 0x00;
  5531  04A2  0198               	clrf	24	;volatile
  5532                           
  5533                           ;mcc_generated_files/adcc.c: 99:     ADCON0 = 0x84;
  5534  04A3  3084               	movlw	132
  5535  04A4  0093               	movwf	19	;volatile
  5536                           
  5537                           ;mcc_generated_files/adcc.c: 101:     ADACQ = 0x00;
  5538  04A5  019D               	clrf	29	;volatile
  5539  04A6  0008               	return
  5540  04A7                     __end_of_ADCC_Initialize:	
  5541                           
  5542                           	psect	text10
  5543  042B                     __ptext10:	
  5544 ;; *************** function _CLC1_OutputStatusGet *****************
  5545 ;; Defined at:
  5546 ;;		line 86 in file "mcc_generated_files/clc1.c"
  5547 ;; Parameters:    Size  Location     Type
  5548 ;;		None
  5549 ;; Auto vars:     Size  Location     Type
  5550 ;;		None
  5551 ;; Return value:  Size  Location     Type
  5552 ;;                  1    wreg      _Bool 
  5553 ;; Registers used:
  5554 ;;		wreg, status,2, status,0
  5555 ;; Tracked objects:
  5556 ;;		On entry : 0/0
  5557 ;;		On exit  : 0/0
  5558 ;;		Unchanged: 0/0
  5559 ;; Data sizes:     COMMON   BANK0   BANK1   BANK2   BANK3   BANK4   BANK5   BANK6   BANK7   BANK8   BANK9  BANK10  BANK1
      +1  BANK12
  5560 ;;      Params:         0       0       0       0       0       0       0       0       0       0       0       0       
      +0       0
  5561 ;;      Locals:         0       0       0       0       0       0       0       0       0       0       0       0       
      +0       0
  5562 ;;      Temps:          0       0       0       0       0       0       0       0       0       0       0       0       
      +0       0
  5563 ;;      Totals:         0       0       0       0       0       0       0       0       0       0       0       0       
      +0       0
  5564 ;;Total ram usage:        0 bytes
  5565 ;; Hardware stack levels used:    1
  5566 ;; This function calls:
  5567 ;;		Nothing
  5568 ;; This function is called by:
  5569 ;;		_main
  5570 ;; This function uses a non-reentrant model
  5571 ;;
  5572                           
  5573                           
  5574                           ;psect for function _CLC1_OutputStatusGet
  5575  042B                     _CLC1_OutputStatusGet:	
  5576                           
  5577                           ;mcc_generated_files/clc1.c: 88:     return(CLC1CONbits.LC1OUT);
  5578                           
  5579                           ;incstack = 0
  5580                           ; Regs used in _CLC1_OutputStatusGet: [wreg+status,2+status,0]
  5581  042B  003C               	movlb	28	; select bank28
  5582  042C  0E10               	swapf	16,w	;volatile
  5583  042D  0C89               	rrf	9,f
  5584  042E  3901               	andlw	1
  5585  042F  0008               	return
  5586  0430                     __end_of_CLC1_OutputStatusGet:	
  5587                           
  5588                           	psect	text11
  5589  045C                     __ptext11:	
  5590 ;; *************** function _ADCC_GetSingleConversion *****************
  5591 ;; Defined at:
  5592 ;;		line 130 in file "mcc_generated_files/adcc.c"
  5593 ;; Parameters:    Size  Location     Type
  5594 ;;  channel         1    wreg     enum E11724
  5595 ;; Auto vars:     Size  Location     Type
  5596 ;;  channel         1    3[COMMON] enum E11724
  5597 ;; Return value:  Size  Location     Type
  5598 ;;                  2    0[COMMON] unsigned short 
  5599 ;; Registers used:
  5600 ;;		wreg
  5601 ;; Tracked objects:
  5602 ;;		On entry : 0/0
  5603 ;;		On exit  : 0/0
  5604 ;;		Unchanged: 0/0
  5605 ;; Data sizes:     COMMON   BANK0   BANK1   BANK2   BANK3   BANK4   BANK5   BANK6   BANK7   BANK8   BANK9  BANK10  BANK1
      +1  BANK12
  5606 ;;      Params:         3       0       0       0       0       0       0       0       0       0       0       0       
      +0       0
  5607 ;;      Locals:         1       0       0       0       0       0       0       0       0       0       0       0       
      +0       0
  5608 ;;      Temps:          0       0       0       0       0       0       0       0       0       0       0       0       
      +0       0
  5609 ;;      Totals:         4       0       0       0       0       0       0       0       0       0       0       0       
      +0       0
  5610 ;;Total ram usage:        4 bytes
  5611 ;; Hardware stack levels used:    1
  5612 ;; This function calls:
  5613 ;;		Nothing
  5614 ;; This function is called by:
  5615 ;;		_main
  5616 ;; This function uses a non-reentrant model
  5617 ;;
  5618                           
  5619                           
  5620                           ;psect for function _ADCC_GetSingleConversion
  5621  045C                     _ADCC_GetSingleConversion:	
  5622                           
  5623                           ;incstack = 0
  5624                           ; Regs used in _ADCC_GetSingleConversion: [wreg]
  5625                           ;ADCC_GetSingleConversion@channel stored from wreg
  5626  045C  00F3               	movwf	ADCC_GetSingleConversion@channel
  5627                           
  5628                           ;mcc_generated_files/adcc.c: 130: adc_result_t ADCC_GetSingleConversion(adcc_channel_t c
      +                          hannel);mcc_generated_files/adcc.c: 131: {;mcc_generated_files/adcc.c: 133:     ADPCH = 
      +                          channel;
  5629  045D  0873               	movf	ADCC_GetSingleConversion@channel,w
  5630  045E  0021               	movlb	1	; select bank1
  5631  045F  009E               	movwf	30	;volatile
  5632                           
  5633                           ;mcc_generated_files/adcc.c: 136:     ADCON0bits.ADON = 1;
  5634  0460  1793               	bsf	19,7	;volatile
  5635                           
  5636                           ;mcc_generated_files/adcc.c: 139:     ADCON0bits.ADCONT = 0;
  5637  0461  1313               	bcf	19,6	;volatile
  5638                           
  5639                           ;mcc_generated_files/adcc.c: 142:     ADCON0bits.ADGO = 1;
  5640  0462  1413               	bsf	19,0	;volatile
  5641                           
  5642                           ;mcc_generated_files/adcc.c: 145:     __nop();
  5643  0463  0000               	nop
  5644  0464                     l87:	
  5645                           ;mcc_generated_files/adcc.c: 149:     {;mcc_generated_files/adcc.c: 150:     }
  5646                           
  5647                           
  5648                           ;mcc_generated_files/adcc.c: 148:     while (ADCON0bits.ADGO)
  5649  0464  0021               	movlb	1	; select bank1
  5650  0465  1813               	btfsc	19,0	;volatile
  5651  0466  2C64               	goto	l87
  5652                           
  5653                           ;mcc_generated_files/adcc.c: 154:     return ((adc_result_t)((ADRESH << 8) + ADRESL));
  5654  0467  080D               	movf	13,w	;volatile
  5655  0468  00F1               	movwf	?_ADCC_GetSingleConversion+1
  5656  0469  080C               	movf	12,w	;volatile
  5657  046A  00F0               	movwf	?_ADCC_GetSingleConversion
  5658  046B  0008               	return
  5659  046C                     __end_of_ADCC_GetSingleConversion:	
  5660  007E                     btemp	set	126	;btemp
  5661  007E                     wtemp0	set	126


Data Sizes:
    Strings     0
    Constant    0
    Data        321
    BSS         0
    Persistent  32
    Stack       0

Auto Spaces:
    Space          Size  Autos    Used
    COMMON           14     13      13
    BANK0            80     12      74
    BANK1            80      0       0
    BANK2            80      0       0
    BANK3            80      0       0
    BANK4            80      0       0
    BANK5            80      0       0
    BANK6            80      0       0
    BANK7            80      0       0
    BANK8            80      0       0
    BANK9            29      0       0
    BANK10            0      0       0
    BANK11            0      0       0
    BANK12            0      0       0

Pointer List with Targets:

    digitShow@p	PTR unsigned char  size(2) Largest target is 259
		 -> matrix(BIGRAM[259]), 


Critical Paths under _main in COMMON

    _main->_digitShow
    _digitShow->___wmul

Critical Paths under _main in BANK0

    None.

Critical Paths under _main in BANK1

    None.

Critical Paths under _main in BANK2

    None.

Critical Paths under _main in BANK3

    None.

Critical Paths under _main in BANK4

    None.

Critical Paths under _main in BANK5

    None.

Critical Paths under _main in BANK6

    None.

Critical Paths under _main in BANK7

    None.

Critical Paths under _main in BANK8

    None.

Critical Paths under _main in BANK9

    None.

Critical Paths under _main in BANK10

    None.

Critical Paths under _main in BANK11

    None.

Critical Paths under _main in BANK12

    None.

Call Graph Tables:

 ---------------------------------------------------------------------------------
 (Depth) Function   	        Calls       Base Space   Used Autos Params    Refs
 ---------------------------------------------------------------------------------
 (0) _main                                                12    12      0     813
                                              0 BANK0     12    12      0
           _ADCC_GetSingleConversion
               _CLC1_OutputStatusGet
                  _SYSTEM_Initialize
                          _digitShow
 ---------------------------------------------------------------------------------
 (1) _digitShow                                            7     7      0     428
                                              6 COMMON     7     7      0
                             ___wmul
 ---------------------------------------------------------------------------------
 (2) ___wmul                                               6     2      4     244
                                              0 COMMON     6     2      4
 ---------------------------------------------------------------------------------
 (1) _SYSTEM_Initialize                                    0     0      0       0
                    _ADCC_Initialize
                    _CLC1_Initialize
              _OSCILLATOR_Initialize
             _PIN_MANAGER_Initialize
                     _PMD_Initialize
                    _TMR2_Initialize
 ---------------------------------------------------------------------------------
 (2) _TMR2_Initialize                                      0     0      0       0
 ---------------------------------------------------------------------------------
 (2) _PMD_Initialize                                       0     0      0       0
 ---------------------------------------------------------------------------------
 (2) _PIN_MANAGER_Initialize                               0     0      0       0
 ---------------------------------------------------------------------------------
 (2) _OSCILLATOR_Initialize                                0     0      0       0
 ---------------------------------------------------------------------------------
 (2) _CLC1_Initialize                                      0     0      0       0
 ---------------------------------------------------------------------------------
 (2) _ADCC_Initialize                                      0     0      0       0
 ---------------------------------------------------------------------------------
 (1) _CLC1_OutputStatusGet                                 0     0      0       0
 ---------------------------------------------------------------------------------
 (1) _ADCC_GetSingleConversion                             4     1      3      22
                                              0 COMMON     4     1      3
 ---------------------------------------------------------------------------------
 Estimated maximum stack depth 2
 ---------------------------------------------------------------------------------

 Call Graph Graphs:

 _main (ROOT)
   _ADCC_GetSingleConversion
   _CLC1_OutputStatusGet
   _SYSTEM_Initialize
     _ADCC_Initialize
     _CLC1_Initialize
     _OSCILLATOR_Initialize
     _PIN_MANAGER_Initialize
     _PMD_Initialize
     _TMR2_Initialize
   _digitShow
     ___wmul

 Address spaces:
Name               Size   Autos  Total    Cost      Usage
BIGRAM             3F0      0       0       0        0.0%
EEDATA             100      0       0       0        0.0%
NULL                 0      0       0       0        0.0%
CODE                 0      0       0       0        0.0%
BITCOMMON            E      0       0       1        0.0%
BITSFR0              0      0       0       1        0.0%
SFR0                 0      0       0       1        0.0%
COMMON               E      D       D       2       92.9%
BITSFR1              0      0       0       2        0.0%
SFR1                 0      0       0       2        0.0%
BITSFR2              0      0       0       3        0.0%
SFR2                 0      0       0       3        0.0%
STACK                0      0       0       3        0.0%
BITBANK0            50      0       0       4        0.0%
BITSFR3              0      0       0       4        0.0%
SFR3                 0      0       0       4        0.0%
BANK0               50      C      4A       5       92.5%
BITSFR4              0      0       0       5        0.0%
SFR4                 0      0       0       5        0.0%
BITBANK1            50      0       0       6        0.0%
BITSFR5              0      0       0       6        0.0%
SFR5                 0      0       0       6        0.0%
BANK1               50      0       0       7        0.0%
BITSFR6              0      0       0       7        0.0%
SFR6                 0      0       0       7        0.0%
BITBANK2            50      0       0       8        0.0%
BITSFR7              0      0       0       8        0.0%
SFR7                 0      0       0       8        0.0%
BANK2               50      0       0       9        0.0%
BITSFR8              0      0       0       9        0.0%
SFR8                 0      0       0       9        0.0%
BITBANK3            50      0       0      10        0.0%
BITSFR9              0      0       0      10        0.0%
SFR9                 0      0       0      10        0.0%
BANK3               50      0       0      11        0.0%
BITSFR10             0      0       0      11        0.0%
SFR10                0      0       0      11        0.0%
BITBANK4            50      0       0      12        0.0%
BITSFR11             0      0       0      12        0.0%
SFR11                0      0       0      12        0.0%
BANK4               50      0       0      13        0.0%
BITSFR12             0      0       0      13        0.0%
SFR12                0      0       0      13        0.0%
BITBANK5            50      0       0      14        0.0%
BITSFR13             0      0       0      14        0.0%
SFR13                0      0       0      14        0.0%
BANK5               50      0       0      15        0.0%
BITSFR14             0      0       0      15        0.0%
SFR14                0      0       0      15        0.0%
BITBANK6            50      0       0      16        0.0%
BITSFR15             0      0       0      16        0.0%
SFR15                0      0       0      16        0.0%
BANK6               50      0       0      17        0.0%
BITSFR16             0      0       0      17        0.0%
SFR16                0      0       0      17        0.0%
BITBANK7            50      0       0      18        0.0%
BITSFR17             0      0       0      18        0.0%
SFR17                0      0       0      18        0.0%
BANK7               50      0       0      19        0.0%
BITSFR18             0      0       0      19        0.0%
SFR18                0      0       0      19        0.0%
BITSFR19             0      0       0      20        0.0%
SFR19                0      0       0      20        0.0%
ABS                  0      0      57      20        0.0%
BITBANK8            50      0       0      21        0.0%
BITSFR20             0      0       0      21        0.0%
SFR20                0      0       0      21        0.0%
BANK8               50      0       0      22        0.0%
BITSFR21             0      0       0      22        0.0%
SFR21                0      0       0      22        0.0%
BITBANK9            50      0       0      23        0.0%
BITSFR22             0      0       0      23        0.0%
SFR22                0      0       0      23        0.0%
BANK9               1D      0       0      24        0.0%
BITSFR23             0      0       0      24        0.0%
SFR23                0      0       0      24        0.0%
BITBANK10           50      0       0      25        0.0%
BITSFR24             0      0       0      25        0.0%
SFR24                0      0       0      25        0.0%
BITSFR25             0      0       0      26        0.0%
SFR25                0      0       0      26        0.0%
BANK10               0      0       0      26        0.0%
BITBANK11           50      0       0      27        0.0%
BITSFR26             0      0       0      27        0.0%
SFR26                0      0       0      27        0.0%
BITSFR27             0      0       0      28        0.0%
SFR27                0      0       0      28        0.0%
BANK11               0      0       0      28        0.0%
BITBANK12           30      0       0      29        0.0%
BITSFR28             0      0       0      29        0.0%
SFR28                0      0       0      29        0.0%
BITSFR29             0      0       0      30        0.0%
SFR29                0      0       0      30        0.0%
BANK12               0      0       0      30        0.0%
BITSFR30             0      0       0      31        0.0%
SFR30                0      0       0      31        0.0%
DATA                 0      0      57      31        0.0%
BITSFR31             0      0       0      32        0.0%
SFR31                0      0       0      32        0.0%


Microchip Technology PIC Macro Assembler V2.05 build -831301201 
Symbol Table                                                                                   Fri Apr 12 15:55:09 2019

                      __CFG_CP$OFF 0000                                 l87 0464  
              ___wmul@multiplicand 0072                        __CFG_LVP$ON 0000  
                              l190 0735                                l576 04AF  
                              u205 04B5                                u315 0774  
                              u235 073F                                u325 0762  
                              _PR2 028D                                u335 07DF  
                              u407 0716                                u417 071C  
                              u265 06C8                       __CFG_CPD$OFF 0000  
                              u195 04B0                                u427 0786  
                              u275 06B6                                u347 06DA  
                              u437 078C                                u285 0733  
                              u357 06E0                                u447 079A  
                              u367 06EE                                u457 07A0  
                              u377 06F4                                u467 07AE  
                              u387 0702                                u477 07B4  
                              u397 0708                                u487 07C2  
                              u497 07C8            __size_of_PMD_Initialize 0008  
                  _TMR2_Initialize 044D                       __CFG_BORV$LO 0000  
                              wreg 0009                       __CFG_ZCD$OFF 0000  
                             l1624 06AD                               l1626 0725  
                             l1484 04A9                               l1636 0756  
                             l1574 06AA                               l1568 06A7  
                             l1686 0759                               l1688 07D1  
                             _LATA 0016                               _LATB 0017  
                             _LATC 0018                               _T2PR 028D  
                             _PMD0 0796                               _PMD1 0797  
                             _PMD2 0798                               _PMD3 0799  
                             _PMD4 079A                               _PMD5 079B  
                             _TMR2 028C                               _WPUA 0F39  
                             _WPUB 0F44                               _WPUC 0F4F  
                             _WPUE 0F65                       __CFG_WRT$OFF 0000  
                    __CFG_FCMEN$ON 0000                               _main 069D  
                             fsr0h 0005                               fsr1h 0007  
                             fsr0l 0004                               indf1 0001  
                             fsr1l 0006                               btemp 007E  
                    __CFG_BOREN$ON 0000                               start 0002  
                    __CFG_CSWEN$ON 0000                      __CFG_MCLRE$ON 0000  
   __size_of_OSCILLATOR_Initialize 0009      __end_of_OSCILLATOR_Initialize 0441  
                            _ADACQ 009D                              _ADCAP 009B  
                            _ADACT 0099                              ?_main 0070  
                            _ADCLK 0098                              _ADCNT 010C  
                            _ADPCH 009E                              _ADREF 009A  
                            _ADPRE 009C                      __CFG_WDTE$OFF 0000  
                            _ADRPT 010D                              _T2CON 028E  
                            _T2HLT 028F                     __CFG_DEBUG$OFF 0000  
                            _T2TMR 028C                              _T2RST 0291  
                            _OSCEN 0891                              _TRISA 0011  
                            _TRISB 0012                              _TRISC 0013  
                            main@i 0066                              main@j 0061  
                            status 0003                              wtemp0 007E  
             _CLC1_OutputStatusGet 042B                    __initialization 07E2  
                     __end_of_main 07E2            __end_of_TMR2_Initialize 045C  
                           ??_main 005E                             _ADACCH 0091  
                           _ADACCL 0090                             _ADCON0 0093  
                           _ADCON1 0094                             _ADCON2 0095  
                           _ADCON3 0096                             _ADERRH 0117  
                           _ADERRL 0116                             _ADLTHH 010F  
                           _ADLTHL 010E                             _ADRESH 008D  
                           _ADRESL 008C                             _ADSTAT 0097  
                           _ADUTHH 0111                             _ADUTHL 0110  
                           _ANSELA 0F38                             _ANSELB 0F43  
                           _ANSELC 0F4E                 __CFG_RSTOSC$HFINT1 0000  
                           _ODCONA 0F3A                             _ODCONB 0F45  
                           _ODCONC 0F50                     __CFG_WDTCCS$SC 0000  
                           _OSCFRQ 0893              ?_CLC1_OutputStatusGet 0070  
                   __CFG_PWRTE$OFF 0000                             ___wmul 04A7  
                   __CFG_STVREN$ON 0000                             _matrix 22ED  
                     __pdataBIGRAM 22ED                    _ADCC_Initialize 0491  
                   _PMD_Initialize 0430  __size_of_ADCC_GetSingleConversion 0010  
        ?_ADCC_GetSingleConversion 0070                    _CLC1_Initialize 047E  
                _SYSTEM_Initialize 046C            __end_of__initialization 07FD  
               ?_SYSTEM_Initialize 0070                     __pcstackCOMMON 0070  
                     __pidataBANK0 04E6                ??_SYSTEM_Initialize 0070  
                 ?_TMR2_Initialize 0070             __end_of_PMD_Initialize 0438  
               __size_of_digitShow 0076          __end_of_SYSTEM_Initialize 047E  
           ??_CLC1_OutputStatusGet 0070                         __pmaintext 069D  
                          ?___wmul 0070                    __CFG_PPS1WAY$ON 0000  
          __end_of_ADCC_Initialize 04A7                            _ADFLTRH 0115  
                          _ADFLTRL 0114                            _CLC1CON 0E10  
                          _CLC1POL 0E11                            _ADPREVH 008F  
                          _ADPREVL 008E                            _ADSTPTH 0113  
                          _ADSTPTL 0112                    ?_PMD_Initialize 0070  
          __end_of_CLC1_Initialize 0491                            _OSCCON1 088D  
                          _OSCCON3 088F                            _OSCTUNE 0892  
                          _SLRCONA 0F3B                            _SLRCONB 0F46  
                          _SLRCONC 0F51                  __end_of_digitShow 059A  
                   digitShow@value 007A               __CFG_SCANE$available 0000  
                  __size_of___wmul 001B                            __ptext1 0524  
                          __ptext2 04A7                            __ptext3 046C  
                          __ptext4 044D                            __ptext5 0430  
                          __ptext6 04C2                            __ptext7 0438  
                          __ptext8 047E                            __ptext9 0491  
            _OSCILLATOR_Initialize 0438                          _T2CONbits 028E  
         ??_PIN_MANAGER_Initialize 0070                          _T2HLTbits 028F  
                          _my_name 0020                            _my_znum 0044  
       __size_of_SYSTEM_Initialize 0012               end_of_initialization 07FD  
                        _T2RSTbits 0291                            init_ram 0441  
                          initloop 0442                         digitShow@p 007B  
                 ?_ADCC_Initialize 0070   __end_of_ADCC_GetSingleConversion 046C  
            __CFG_WDTCPS$WDTCPS_31 0000                   ?_CLC1_Initialize 0070  
                 __CFG_FEXTOSC$OFF 0000                        _CLC1CONbits 0E10  
                    __pidataBIGRAM 059A                     __end_of___wmul 04C2  
           ?_OSCILLATOR_Initialize 0070                start_initialization 07E2  
  __size_of_PIN_MANAGER_Initialize 0024                   __CFG_LPBOREN$OFF 0000  
                 ??_PMD_Initialize 0070                           ??___wmul 0074  
                      __pdataBANK0 0020           _ADCC_GetSingleConversion 045C  
                        ___latbits 0002                      __pcstackBANK0 005E  
         __size_of_TMR2_Initialize 000F      __size_of_CLC1_OutputStatusGet 0005  
           _PIN_MANAGER_Initialize 04C2                          _digitShow 0524  
  ADCC_GetSingleConversion@channel 0073                           _CLC1GLS0 0E16  
                         _CLC1GLS1 0E17                           _CLC1GLS2 0E18  
                         _CLC1GLS3 0E19                           _CLC1SEL0 0E12  
                         _CLC1SEL1 0E13                           _CLC1SEL2 0E14  
                         _CLC1SEL3 0E15                           _T2AINPPS 0E9C  
                         _T2CLKCON 0290                     ___wmul@product 0074  
                         _LATBbits 0017                           _LATCbits 0018  
                         _PIR4bits 0710                         ?_digitShow 0070  
                       _ADCON0bits 0093                         _ADCON1bits 0094  
                       _ADCON2bits 0095                         _ADCON3bits 0096  
                        main@i_371 0068                          main@j_372 0063  
                ___wmul@multiplier 0070                          main@digit 0065  
                ??_TMR2_Initialize 0070                         _ADSTATbits 0097  
          ??_OSCILLATOR_Initialize 0070           __size_of_ADCC_Initialize 0016  
                         __ptext10 042B                           __ptext11 045C  
         __size_of_CLC1_Initialize 0013                      __size_of_main 0145  
             __CFG_WDTCWS$WDTCWS_7 0000                        ??_digitShow 0076  
       ??_ADCC_GetSingleConversion 0073            ?_PIN_MANAGER_Initialize 0070  
                __CFG_CLKOUTEN$OFF 0000       __end_of_CLC1_OutputStatusGet 0430  
   __end_of_PIN_MANAGER_Initialize 04E6                  ??_ADCC_Initialize 0070  
                ??_CLC1_Initialize 0070  
