

Microchip MPLAB XC8 Assembler V2.05 build -831301201 
                                                                                               Fri Apr 26 14:46:44 2019

Microchip MPLAB XC8 C Compiler v2.05 (Free license) build 20181220022703 Og1 
     1                           	processor	16F18855
     2                           	opt	pw 120
     3                           	opt	flic
     4                           	psect	idataBANK0,global,class=CODE,delta=2
     5                           	psect	idataBIGRAM,global,class=CODE,delta=2
     6                           	psect	cinit,global,class=CODE,merge=1,delta=2
     7                           	psect	dataBANK0,global,class=BANK0,space=1,delta=1
     8                           	psect	inittext,global,class=CODE,delta=2
     9                           	psect	cstackCOMMON,global,class=COMMON,space=1,delta=1
    10                           	psect	cstackBANK0,global,class=BANK0,space=1,delta=1
    11                           	psect	maintext,global,class=CODE,merge=1,split=1,delta=2
    12                           	psect	text1,local,class=CODE,merge=1,delta=2
    13                           	psect	text2,local,class=CODE,merge=1,delta=2,group=1
    14                           	psect	text3,local,class=CODE,merge=1,delta=2,group=1
    15                           	psect	text4,local,class=CODE,merge=1,delta=2,group=1
    16                           	psect	text5,local,class=CODE,merge=1,delta=2
    17                           	psect	text6,local,class=CODE,merge=1,delta=2
    18                           	psect	text7,local,class=CODE,merge=1,delta=2
    19                           	psect	text8,local,class=CODE,merge=1,delta=2
    20                           	psect	text9,local,class=CODE,merge=1,delta=2
    21                           	psect	text10,local,class=CODE,merge=1,delta=2
    22                           	dabs	1,0x620,48
    23                           	dabs	1,0x5A0,80
    24                           	dabs	1,0x520,80
    25                           	dabs	1,0x4BD,51
    26                           	dabs	1,0x22ED,0,_matrix_word
    27                           	dabs	1,0x7E,2
    28  0000                     
    29                           ; Version 2.05
    30                           ; Generated 20/12/2018 GMT
    31                           ; 
    32                           ; Copyright © 2018, Microchip Technology Inc. and its subsidiaries ("Microchip")
    33                           ; All rights reserved.
    34                           ; 
    35                           ; This software is developed by Microchip Technology Inc. and its subsidiaries ("Microch
      +                          ip").
    36                           ; 
    37                           ; Redistribution and use in source and binary forms, with or without modification, are
    38                           ; permitted provided that the following conditions are met:
    39                           ; 
    40                           ;     1. Redistributions of source code must retain the above copyright notice, this lis
      +                          t of
    41                           ;        conditions and the following disclaimer.
    42                           ; 
    43                           ;     2. Redistributions in binary form must reproduce the above copyright notice, this 
      +                          list
    44                           ;        of conditions and the following disclaimer in the documentation and/or other
    45                           ;        materials provided with the distribution.
    46                           ; 
    47                           ;     3. Microchip's name may not be used to endorse or promote products derived from th
      +                          is
    48                           ;        software without specific prior written permission.
    49                           ; 
    50                           ; THIS SOFTWARE IS PROVIDED BY MICROCHIP "AS IS" AND ANY EXPRESS OR IMPLIED WARRANTIES,
    51                           ; INCLUDING, BUT NOT LIMITED TO, THE IMPLIED WARRANTIES OF MERCHANTABILITY AND FITNESS F
      +                          OR
    52                           ; PURPOSE ARE DISCLAIMED.  IN NO EVENT SHALL MICROCHIP BE LIABLE FOR ANY DIRECT, INDIREC
      +                          T,
    53                           ; INCIDENTAL, SPECIAL, EXEMPLARY, OR CONSEQUENTIAL DAMAGES (INCLUDING BUT NOT LIMITED TO
    54                           ; PROCUREMENT OF SUBSTITUTE GOODS OR SERVICES; LOSS OF USE, DATA OR PROFITS; OR BUSINESS
    55                           ; INTERRUPTION) HOWSOEVER CAUSED AND ON ANY THEORY OF LIABILITY, WHETHER IN CONTRACT, ST
      +                          RICT
    56                           ; LIABILITY, OR TORT (INCLUDING NEGLIGENCE OR OTHERWISE) ARISING IN ANY WAY OUT OF THE U
      +                          SE OF
    57                           ; THIS SOFTWARE, EVEN IF ADVISED OF THE POSSIBILITY OF SUCH DAMAGE.
    58                           ; 
    59                           ; 
    60                           ; Code-generator required, PIC16F18855 Definitions
    61                           ; 
    62                           ; SFR Addresses
    63  0000                     	;# 
    64  0001                     	;# 
    65  0002                     	;# 
    66  0003                     	;# 
    67  0004                     	;# 
    68  0005                     	;# 
    69  0006                     	;# 
    70  0007                     	;# 
    71  0008                     	;# 
    72  0009                     	;# 
    73  000A                     	;# 
    74  000B                     	;# 
    75  000C                     	;# 
    76  000D                     	;# 
    77  000E                     	;# 
    78  0010                     	;# 
    79  0011                     	;# 
    80  0012                     	;# 
    81  0013                     	;# 
    82  0016                     	;# 
    83  0017                     	;# 
    84  0018                     	;# 
    85  001C                     	;# 
    86  001C                     	;# 
    87  001D                     	;# 
    88  001D                     	;# 
    89  001E                     	;# 
    90  001F                     	;# 
    91  008C                     	;# 
    92  008C                     	;# 
    93  008D                     	;# 
    94  008E                     	;# 
    95  008E                     	;# 
    96  008F                     	;# 
    97  0090                     	;# 
    98  0090                     	;# 
    99  0091                     	;# 
   100  0093                     	;# 
   101  0094                     	;# 
   102  0095                     	;# 
   103  0096                     	;# 
   104  0097                     	;# 
   105  0098                     	;# 
   106  0099                     	;# 
   107  009A                     	;# 
   108  009B                     	;# 
   109  009C                     	;# 
   110  009D                     	;# 
   111  009E                     	;# 
   112  010C                     	;# 
   113  010D                     	;# 
   114  010E                     	;# 
   115  010E                     	;# 
   116  010F                     	;# 
   117  0110                     	;# 
   118  0110                     	;# 
   119  0111                     	;# 
   120  0112                     	;# 
   121  0112                     	;# 
   122  0113                     	;# 
   123  0114                     	;# 
   124  0114                     	;# 
   125  0115                     	;# 
   126  0116                     	;# 
   127  0116                     	;# 
   128  0117                     	;# 
   129  0119                     	;# 
   130  0119                     	;# 
   131  0119                     	;# 
   132  011A                     	;# 
   133  011A                     	;# 
   134  011A                     	;# 
   135  011B                     	;# 
   136  011B                     	;# 
   137  011B                     	;# 
   138  011B                     	;# 
   139  011B                     	;# 
   140  011C                     	;# 
   141  011C                     	;# 
   142  011C                     	;# 
   143  011D                     	;# 
   144  011D                     	;# 
   145  011D                     	;# 
   146  011E                     	;# 
   147  011E                     	;# 
   148  011E                     	;# 
   149  011F                     	;# 
   150  011F                     	;# 
   151  011F                     	;# 
   152  011F                     	;# 
   153  011F                     	;# 
   154  018C                     	;# 
   155  018D                     	;# 
   156  018E                     	;# 
   157  018F                     	;# 
   158  0190                     	;# 
   159  0191                     	;# 
   160  0192                     	;# 
   161  0196                     	;# 
   162  0197                     	;# 
   163  0198                     	;# 
   164  0199                     	;# 
   165  019A                     	;# 
   166  019B                     	;# 
   167  019C                     	;# 
   168  020C                     	;# 
   169  020C                     	;# 
   170  020D                     	;# 
   171  020E                     	;# 
   172  020F                     	;# 
   173  020F                     	;# 
   174  0210                     	;# 
   175  0210                     	;# 
   176  0211                     	;# 
   177  0211                     	;# 
   178  0212                     	;# 
   179  0212                     	;# 
   180  0213                     	;# 
   181  0214                     	;# 
   182  0215                     	;# 
   183  0215                     	;# 
   184  0216                     	;# 
   185  0216                     	;# 
   186  0217                     	;# 
   187  0217                     	;# 
   188  0218                     	;# 
   189  0218                     	;# 
   190  0219                     	;# 
   191  021A                     	;# 
   192  021B                     	;# 
   193  021B                     	;# 
   194  021C                     	;# 
   195  021C                     	;# 
   196  021D                     	;# 
   197  021D                     	;# 
   198  021E                     	;# 
   199  021F                     	;# 
   200  028C                     	;# 
   201  028C                     	;# 
   202  028D                     	;# 
   203  028D                     	;# 
   204  028E                     	;# 
   205  028F                     	;# 
   206  0290                     	;# 
   207  0290                     	;# 
   208  0291                     	;# 
   209  0292                     	;# 
   210  0292                     	;# 
   211  0293                     	;# 
   212  0293                     	;# 
   213  0294                     	;# 
   214  0295                     	;# 
   215  0296                     	;# 
   216  0296                     	;# 
   217  0297                     	;# 
   218  0298                     	;# 
   219  0298                     	;# 
   220  0299                     	;# 
   221  0299                     	;# 
   222  029A                     	;# 
   223  029B                     	;# 
   224  029C                     	;# 
   225  029C                     	;# 
   226  029D                     	;# 
   227  030C                     	;# 
   228  030C                     	;# 
   229  030D                     	;# 
   230  030E                     	;# 
   231  030F                     	;# 
   232  0310                     	;# 
   233  0310                     	;# 
   234  0311                     	;# 
   235  0312                     	;# 
   236  0313                     	;# 
   237  0314                     	;# 
   238  0314                     	;# 
   239  0315                     	;# 
   240  0316                     	;# 
   241  0317                     	;# 
   242  0318                     	;# 
   243  0318                     	;# 
   244  0319                     	;# 
   245  031A                     	;# 
   246  031B                     	;# 
   247  031C                     	;# 
   248  031C                     	;# 
   249  031D                     	;# 
   250  031E                     	;# 
   251  031F                     	;# 
   252  038C                     	;# 
   253  038C                     	;# 
   254  038D                     	;# 
   255  038E                     	;# 
   256  0390                     	;# 
   257  0390                     	;# 
   258  0391                     	;# 
   259  0392                     	;# 
   260  040C                     	;# 
   261  040D                     	;# 
   262  040E                     	;# 
   263  040F                     	;# 
   264  0410                     	;# 
   265  0411                     	;# 
   266  0416                     	;# 
   267  0416                     	;# 
   268  0417                     	;# 
   269  0418                     	;# 
   270  0418                     	;# 
   271  0419                     	;# 
   272  041A                     	;# 
   273  041A                     	;# 
   274  041B                     	;# 
   275  041C                     	;# 
   276  041C                     	;# 
   277  041D                     	;# 
   278  041E                     	;# 
   279  041F                     	;# 
   280  048C                     	;# 
   281  048C                     	;# 
   282  048D                     	;# 
   283  048E                     	;# 
   284  048F                     	;# 
   285  048F                     	;# 
   286  0490                     	;# 
   287  0491                     	;# 
   288  0492                     	;# 
   289  0492                     	;# 
   290  0493                     	;# 
   291  0494                     	;# 
   292  0495                     	;# 
   293  0495                     	;# 
   294  0496                     	;# 
   295  0497                     	;# 
   296  0498                     	;# 
   297  0499                     	;# 
   298  049A                     	;# 
   299  049B                     	;# 
   300  049C                     	;# 
   301  049D                     	;# 
   302  050C                     	;# 
   303  050C                     	;# 
   304  050D                     	;# 
   305  050E                     	;# 
   306  050F                     	;# 
   307  050F                     	;# 
   308  0510                     	;# 
   309  0511                     	;# 
   310  0512                     	;# 
   311  0512                     	;# 
   312  0513                     	;# 
   313  0514                     	;# 
   314  0515                     	;# 
   315  0515                     	;# 
   316  0516                     	;# 
   317  0517                     	;# 
   318  0518                     	;# 
   319  0519                     	;# 
   320  051A                     	;# 
   321  051B                     	;# 
   322  051C                     	;# 
   323  051D                     	;# 
   324  058C                     	;# 
   325  058C                     	;# 
   326  058D                     	;# 
   327  058E                     	;# 
   328  058F                     	;# 
   329  058F                     	;# 
   330  0590                     	;# 
   331  0591                     	;# 
   332  0592                     	;# 
   333  0593                     	;# 
   334  060C                     	;# 
   335  060D                     	;# 
   336  060E                     	;# 
   337  060F                     	;# 
   338  0610                     	;# 
   339  0611                     	;# 
   340  0612                     	;# 
   341  0613                     	;# 
   342  0614                     	;# 
   343  0616                     	;# 
   344  0617                     	;# 
   345  0618                     	;# 
   346  0619                     	;# 
   347  061A                     	;# 
   348  061B                     	;# 
   349  061C                     	;# 
   350  061D                     	;# 
   351  061E                     	;# 
   352  068C                     	;# 
   353  068D                     	;# 
   354  068E                     	;# 
   355  068F                     	;# 
   356  0690                     	;# 
   357  0691                     	;# 
   358  0692                     	;# 
   359  0693                     	;# 
   360  0694                     	;# 
   361  070C                     	;# 
   362  070D                     	;# 
   363  070E                     	;# 
   364  070F                     	;# 
   365  0710                     	;# 
   366  0711                     	;# 
   367  0712                     	;# 
   368  0713                     	;# 
   369  0714                     	;# 
   370  0716                     	;# 
   371  0717                     	;# 
   372  0718                     	;# 
   373  0719                     	;# 
   374  071A                     	;# 
   375  071B                     	;# 
   376  071C                     	;# 
   377  071D                     	;# 
   378  071E                     	;# 
   379  0796                     	;# 
   380  0797                     	;# 
   381  0798                     	;# 
   382  0799                     	;# 
   383  079A                     	;# 
   384  079B                     	;# 
   385  080C                     	;# 
   386  080D                     	;# 
   387  080E                     	;# 
   388  080F                     	;# 
   389  0810                     	;# 
   390  0811                     	;# 
   391  0812                     	;# 
   392  0813                     	;# 
   393  0814                     	;# 
   394  081A                     	;# 
   395  081B                     	;# 
   396  081C                     	;# 
   397  081D                     	;# 
   398  081E                     	;# 
   399  081F                     	;# 
   400  088C                     	;# 
   401  088D                     	;# 
   402  088E                     	;# 
   403  088F                     	;# 
   404  0890                     	;# 
   405  0891                     	;# 
   406  0892                     	;# 
   407  0893                     	;# 
   408  0895                     	;# 
   409  0896                     	;# 
   410  0897                     	;# 
   411  0898                     	;# 
   412  0899                     	;# 
   413  089A                     	;# 
   414  089B                     	;# 
   415  090C                     	;# 
   416  090E                     	;# 
   417  090F                     	;# 
   418  091F                     	;# 
   419  091F                     	;# 
   420  098F                     	;# 
   421  098F                     	;# 
   422  0990                     	;# 
   423  0991                     	;# 
   424  0992                     	;# 
   425  0993                     	;# 
   426  0994                     	;# 
   427  0995                     	;# 
   428  0996                     	;# 
   429  0997                     	;# 
   430  0E0F                     	;# 
   431  0E10                     	;# 
   432  0E11                     	;# 
   433  0E12                     	;# 
   434  0E13                     	;# 
   435  0E14                     	;# 
   436  0E15                     	;# 
   437  0E16                     	;# 
   438  0E17                     	;# 
   439  0E18                     	;# 
   440  0E19                     	;# 
   441  0E1A                     	;# 
   442  0E1B                     	;# 
   443  0E1C                     	;# 
   444  0E1D                     	;# 
   445  0E1E                     	;# 
   446  0E1F                     	;# 
   447  0E20                     	;# 
   448  0E21                     	;# 
   449  0E22                     	;# 
   450  0E23                     	;# 
   451  0E24                     	;# 
   452  0E25                     	;# 
   453  0E26                     	;# 
   454  0E27                     	;# 
   455  0E28                     	;# 
   456  0E29                     	;# 
   457  0E2A                     	;# 
   458  0E2B                     	;# 
   459  0E2C                     	;# 
   460  0E2D                     	;# 
   461  0E2E                     	;# 
   462  0E2F                     	;# 
   463  0E30                     	;# 
   464  0E31                     	;# 
   465  0E32                     	;# 
   466  0E33                     	;# 
   467  0E34                     	;# 
   468  0E35                     	;# 
   469  0E36                     	;# 
   470  0E37                     	;# 
   471  0E8F                     	;# 
   472  0E90                     	;# 
   473  0E91                     	;# 
   474  0E92                     	;# 
   475  0E93                     	;# 
   476  0E94                     	;# 
   477  0E95                     	;# 
   478  0E96                     	;# 
   479  0E97                     	;# 
   480  0E9C                     	;# 
   481  0E9D                     	;# 
   482  0E9E                     	;# 
   483  0EA1                     	;# 
   484  0EA2                     	;# 
   485  0EA3                     	;# 
   486  0EA4                     	;# 
   487  0EA5                     	;# 
   488  0EA9                     	;# 
   489  0EAA                     	;# 
   490  0EAB                     	;# 
   491  0EAC                     	;# 
   492  0EB1                     	;# 
   493  0EB2                     	;# 
   494  0EB3                     	;# 
   495  0EB8                     	;# 
   496  0EB9                     	;# 
   497  0EBA                     	;# 
   498  0EBB                     	;# 
   499  0EBC                     	;# 
   500  0EBD                     	;# 
   501  0EBE                     	;# 
   502  0EC3                     	;# 
   503  0EC5                     	;# 
   504  0EC6                     	;# 
   505  0EC7                     	;# 
   506  0EC8                     	;# 
   507  0EC9                     	;# 
   508  0ECA                     	;# 
   509  0ECB                     	;# 
   510  0ECC                     	;# 
   511  0F10                     	;# 
   512  0F11                     	;# 
   513  0F12                     	;# 
   514  0F13                     	;# 
   515  0F14                     	;# 
   516  0F15                     	;# 
   517  0F16                     	;# 
   518  0F17                     	;# 
   519  0F18                     	;# 
   520  0F19                     	;# 
   521  0F1A                     	;# 
   522  0F1B                     	;# 
   523  0F1C                     	;# 
   524  0F1D                     	;# 
   525  0F1E                     	;# 
   526  0F1F                     	;# 
   527  0F20                     	;# 
   528  0F21                     	;# 
   529  0F22                     	;# 
   530  0F23                     	;# 
   531  0F24                     	;# 
   532  0F25                     	;# 
   533  0F26                     	;# 
   534  0F27                     	;# 
   535  0F38                     	;# 
   536  0F39                     	;# 
   537  0F3A                     	;# 
   538  0F3B                     	;# 
   539  0F3C                     	;# 
   540  0F3D                     	;# 
   541  0F3E                     	;# 
   542  0F3F                     	;# 
   543  0F40                     	;# 
   544  0F41                     	;# 
   545  0F43                     	;# 
   546  0F44                     	;# 
   547  0F45                     	;# 
   548  0F46                     	;# 
   549  0F47                     	;# 
   550  0F48                     	;# 
   551  0F49                     	;# 
   552  0F4A                     	;# 
   553  0F4B                     	;# 
   554  0F4C                     	;# 
   555  0F4E                     	;# 
   556  0F4F                     	;# 
   557  0F50                     	;# 
   558  0F51                     	;# 
   559  0F52                     	;# 
   560  0F53                     	;# 
   561  0F54                     	;# 
   562  0F55                     	;# 
   563  0F56                     	;# 
   564  0F57                     	;# 
   565  0F65                     	;# 
   566  0F68                     	;# 
   567  0F69                     	;# 
   568  0F6A                     	;# 
   569  0F6B                     	;# 
   570  0FE4                     	;# 
   571  0FE5                     	;# 
   572  0FE6                     	;# 
   573  0FE7                     	;# 
   574  0FE8                     	;# 
   575  0FE9                     	;# 
   576  0FEA                     	;# 
   577  0FEB                     	;# 
   578  0FED                     	;# 
   579  0FEE                     	;# 
   580  0FEF                     	;# 
   581  0000                     	;# 
   582  0001                     	;# 
   583  0002                     	;# 
   584  0003                     	;# 
   585  0004                     	;# 
   586  0005                     	;# 
   587  0006                     	;# 
   588  0007                     	;# 
   589  0008                     	;# 
   590  0009                     	;# 
   591  000A                     	;# 
   592  000B                     	;# 
   593  000C                     	;# 
   594  000D                     	;# 
   595  000E                     	;# 
   596  0010                     	;# 
   597  0011                     	;# 
   598  0012                     	;# 
   599  0013                     	;# 
   600  0016                     	;# 
   601  0017                     	;# 
   602  0018                     	;# 
   603  001C                     	;# 
   604  001C                     	;# 
   605  001D                     	;# 
   606  001D                     	;# 
   607  001E                     	;# 
   608  001F                     	;# 
   609  008C                     	;# 
   610  008C                     	;# 
   611  008D                     	;# 
   612  008E                     	;# 
   613  008E                     	;# 
   614  008F                     	;# 
   615  0090                     	;# 
   616  0090                     	;# 
   617  0091                     	;# 
   618  0093                     	;# 
   619  0094                     	;# 
   620  0095                     	;# 
   621  0096                     	;# 
   622  0097                     	;# 
   623  0098                     	;# 
   624  0099                     	;# 
   625  009A                     	;# 
   626  009B                     	;# 
   627  009C                     	;# 
   628  009D                     	;# 
   629  009E                     	;# 
   630  010C                     	;# 
   631  010D                     	;# 
   632  010E                     	;# 
   633  010E                     	;# 
   634  010F                     	;# 
   635  0110                     	;# 
   636  0110                     	;# 
   637  0111                     	;# 
   638  0112                     	;# 
   639  0112                     	;# 
   640  0113                     	;# 
   641  0114                     	;# 
   642  0114                     	;# 
   643  0115                     	;# 
   644  0116                     	;# 
   645  0116                     	;# 
   646  0117                     	;# 
   647  0119                     	;# 
   648  0119                     	;# 
   649  0119                     	;# 
   650  011A                     	;# 
   651  011A                     	;# 
   652  011A                     	;# 
   653  011B                     	;# 
   654  011B                     	;# 
   655  011B                     	;# 
   656  011B                     	;# 
   657  011B                     	;# 
   658  011C                     	;# 
   659  011C                     	;# 
   660  011C                     	;# 
   661  011D                     	;# 
   662  011D                     	;# 
   663  011D                     	;# 
   664  011E                     	;# 
   665  011E                     	;# 
   666  011E                     	;# 
   667  011F                     	;# 
   668  011F                     	;# 
   669  011F                     	;# 
   670  011F                     	;# 
   671  011F                     	;# 
   672  018C                     	;# 
   673  018D                     	;# 
   674  018E                     	;# 
   675  018F                     	;# 
   676  0190                     	;# 
   677  0191                     	;# 
   678  0192                     	;# 
   679  0196                     	;# 
   680  0197                     	;# 
   681  0198                     	;# 
   682  0199                     	;# 
   683  019A                     	;# 
   684  019B                     	;# 
   685  019C                     	;# 
   686  020C                     	;# 
   687  020C                     	;# 
   688  020D                     	;# 
   689  020E                     	;# 
   690  020F                     	;# 
   691  020F                     	;# 
   692  0210                     	;# 
   693  0210                     	;# 
   694  0211                     	;# 
   695  0211                     	;# 
   696  0212                     	;# 
   697  0212                     	;# 
   698  0213                     	;# 
   699  0214                     	;# 
   700  0215                     	;# 
   701  0215                     	;# 
   702  0216                     	;# 
   703  0216                     	;# 
   704  0217                     	;# 
   705  0217                     	;# 
   706  0218                     	;# 
   707  0218                     	;# 
   708  0219                     	;# 
   709  021A                     	;# 
   710  021B                     	;# 
   711  021B                     	;# 
   712  021C                     	;# 
   713  021C                     	;# 
   714  021D                     	;# 
   715  021D                     	;# 
   716  021E                     	;# 
   717  021F                     	;# 
   718  028C                     	;# 
   719  028C                     	;# 
   720  028D                     	;# 
   721  028D                     	;# 
   722  028E                     	;# 
   723  028F                     	;# 
   724  0290                     	;# 
   725  0290                     	;# 
   726  0291                     	;# 
   727  0292                     	;# 
   728  0292                     	;# 
   729  0293                     	;# 
   730  0293                     	;# 
   731  0294                     	;# 
   732  0295                     	;# 
   733  0296                     	;# 
   734  0296                     	;# 
   735  0297                     	;# 
   736  0298                     	;# 
   737  0298                     	;# 
   738  0299                     	;# 
   739  0299                     	;# 
   740  029A                     	;# 
   741  029B                     	;# 
   742  029C                     	;# 
   743  029C                     	;# 
   744  029D                     	;# 
   745  030C                     	;# 
   746  030C                     	;# 
   747  030D                     	;# 
   748  030E                     	;# 
   749  030F                     	;# 
   750  0310                     	;# 
   751  0310                     	;# 
   752  0311                     	;# 
   753  0312                     	;# 
   754  0313                     	;# 
   755  0314                     	;# 
   756  0314                     	;# 
   757  0315                     	;# 
   758  0316                     	;# 
   759  0317                     	;# 
   760  0318                     	;# 
   761  0318                     	;# 
   762  0319                     	;# 
   763  031A                     	;# 
   764  031B                     	;# 
   765  031C                     	;# 
   766  031C                     	;# 
   767  031D                     	;# 
   768  031E                     	;# 
   769  031F                     	;# 
   770  038C                     	;# 
   771  038C                     	;# 
   772  038D                     	;# 
   773  038E                     	;# 
   774  0390                     	;# 
   775  0390                     	;# 
   776  0391                     	;# 
   777  0392                     	;# 
   778  040C                     	;# 
   779  040D                     	;# 
   780  040E                     	;# 
   781  040F                     	;# 
   782  0410                     	;# 
   783  0411                     	;# 
   784  0416                     	;# 
   785  0416                     	;# 
   786  0417                     	;# 
   787  0418                     	;# 
   788  0418                     	;# 
   789  0419                     	;# 
   790  041A                     	;# 
   791  041A                     	;# 
   792  041B                     	;# 
   793  041C                     	;# 
   794  041C                     	;# 
   795  041D                     	;# 
   796  041E                     	;# 
   797  041F                     	;# 
   798  048C                     	;# 
   799  048C                     	;# 
   800  048D                     	;# 
   801  048E                     	;# 
   802  048F                     	;# 
   803  048F                     	;# 
   804  0490                     	;# 
   805  0491                     	;# 
   806  0492                     	;# 
   807  0492                     	;# 
   808  0493                     	;# 
   809  0494                     	;# 
   810  0495                     	;# 
   811  0495                     	;# 
   812  0496                     	;# 
   813  0497                     	;# 
   814  0498                     	;# 
   815  0499                     	;# 
   816  049A                     	;# 
   817  049B                     	;# 
   818  049C                     	;# 
   819  049D                     	;# 
   820  050C                     	;# 
   821  050C                     	;# 
   822  050D                     	;# 
   823  050E                     	;# 
   824  050F                     	;# 
   825  050F                     	;# 
   826  0510                     	;# 
   827  0511                     	;# 
   828  0512                     	;# 
   829  0512                     	;# 
   830  0513                     	;# 
   831  0514                     	;# 
   832  0515                     	;# 
   833  0515                     	;# 
   834  0516                     	;# 
   835  0517                     	;# 
   836  0518                     	;# 
   837  0519                     	;# 
   838  051A                     	;# 
   839  051B                     	;# 
   840  051C                     	;# 
   841  051D                     	;# 
   842  058C                     	;# 
   843  058C                     	;# 
   844  058D                     	;# 
   845  058E                     	;# 
   846  058F                     	;# 
   847  058F                     	;# 
   848  0590                     	;# 
   849  0591                     	;# 
   850  0592                     	;# 
   851  0593                     	;# 
   852  060C                     	;# 
   853  060D                     	;# 
   854  060E                     	;# 
   855  060F                     	;# 
   856  0610                     	;# 
   857  0611                     	;# 
   858  0612                     	;# 
   859  0613                     	;# 
   860  0614                     	;# 
   861  0616                     	;# 
   862  0617                     	;# 
   863  0618                     	;# 
   864  0619                     	;# 
   865  061A                     	;# 
   866  061B                     	;# 
   867  061C                     	;# 
   868  061D                     	;# 
   869  061E                     	;# 
   870  068C                     	;# 
   871  068D                     	;# 
   872  068E                     	;# 
   873  068F                     	;# 
   874  0690                     	;# 
   875  0691                     	;# 
   876  0692                     	;# 
   877  0693                     	;# 
   878  0694                     	;# 
   879  070C                     	;# 
   880  070D                     	;# 
   881  070E                     	;# 
   882  070F                     	;# 
   883  0710                     	;# 
   884  0711                     	;# 
   885  0712                     	;# 
   886  0713                     	;# 
   887  0714                     	;# 
   888  0716                     	;# 
   889  0717                     	;# 
   890  0718                     	;# 
   891  0719                     	;# 
   892  071A                     	;# 
   893  071B                     	;# 
   894  071C                     	;# 
   895  071D                     	;# 
   896  071E                     	;# 
   897  0796                     	;# 
   898  0797                     	;# 
   899  0798                     	;# 
   900  0799                     	;# 
   901  079A                     	;# 
   902  079B                     	;# 
   903  080C                     	;# 
   904  080D                     	;# 
   905  080E                     	;# 
   906  080F                     	;# 
   907  0810                     	;# 
   908  0811                     	;# 
   909  0812                     	;# 
   910  0813                     	;# 
   911  0814                     	;# 
   912  081A                     	;# 
   913  081B                     	;# 
   914  081C                     	;# 
   915  081D                     	;# 
   916  081E                     	;# 
   917  081F                     	;# 
   918  088C                     	;# 
   919  088D                     	;# 
   920  088E                     	;# 
   921  088F                     	;# 
   922  0890                     	;# 
   923  0891                     	;# 
   924  0892                     	;# 
   925  0893                     	;# 
   926  0895                     	;# 
   927  0896                     	;# 
   928  0897                     	;# 
   929  0898                     	;# 
   930  0899                     	;# 
   931  089A                     	;# 
   932  089B                     	;# 
   933  090C                     	;# 
   934  090E                     	;# 
   935  090F                     	;# 
   936  091F                     	;# 
   937  091F                     	;# 
   938  098F                     	;# 
   939  098F                     	;# 
   940  0990                     	;# 
   941  0991                     	;# 
   942  0992                     	;# 
   943  0993                     	;# 
   944  0994                     	;# 
   945  0995                     	;# 
   946  0996                     	;# 
   947  0997                     	;# 
   948  0E0F                     	;# 
   949  0E10                     	;# 
   950  0E11                     	;# 
   951  0E12                     	;# 
   952  0E13                     	;# 
   953  0E14                     	;# 
   954  0E15                     	;# 
   955  0E16                     	;# 
   956  0E17                     	;# 
   957  0E18                     	;# 
   958  0E19                     	;# 
   959  0E1A                     	;# 
   960  0E1B                     	;# 
   961  0E1C                     	;# 
   962  0E1D                     	;# 
   963  0E1E                     	;# 
   964  0E1F                     	;# 
   965  0E20                     	;# 
   966  0E21                     	;# 
   967  0E22                     	;# 
   968  0E23                     	;# 
   969  0E24                     	;# 
   970  0E25                     	;# 
   971  0E26                     	;# 
   972  0E27                     	;# 
   973  0E28                     	;# 
   974  0E29                     	;# 
   975  0E2A                     	;# 
   976  0E2B                     	;# 
   977  0E2C                     	;# 
   978  0E2D                     	;# 
   979  0E2E                     	;# 
   980  0E2F                     	;# 
   981  0E30                     	;# 
   982  0E31                     	;# 
   983  0E32                     	;# 
   984  0E33                     	;# 
   985  0E34                     	;# 
   986  0E35                     	;# 
   987  0E36                     	;# 
   988  0E37                     	;# 
   989  0E8F                     	;# 
   990  0E90                     	;# 
   991  0E91                     	;# 
   992  0E92                     	;# 
   993  0E93                     	;# 
   994  0E94                     	;# 
   995  0E95                     	;# 
   996  0E96                     	;# 
   997  0E97                     	;# 
   998  0E9C                     	;# 
   999  0E9D                     	;# 
  1000  0E9E                     	;# 
  1001  0EA1                     	;# 
  1002  0EA2                     	;# 
  1003  0EA3                     	;# 
  1004  0EA4                     	;# 
  1005  0EA5                     	;# 
  1006  0EA9                     	;# 
  1007  0EAA                     	;# 
  1008  0EAB                     	;# 
  1009  0EAC                     	;# 
  1010  0EB1                     	;# 
  1011  0EB2                     	;# 
  1012  0EB3                     	;# 
  1013  0EB8                     	;# 
  1014  0EB9                     	;# 
  1015  0EBA                     	;# 
  1016  0EBB                     	;# 
  1017  0EBC                     	;# 
  1018  0EBD                     	;# 
  1019  0EBE                     	;# 
  1020  0EC3                     	;# 
  1021  0EC5                     	;# 
  1022  0EC6                     	;# 
  1023  0EC7                     	;# 
  1024  0EC8                     	;# 
  1025  0EC9                     	;# 
  1026  0ECA                     	;# 
  1027  0ECB                     	;# 
  1028  0ECC                     	;# 
  1029  0F10                     	;# 
  1030  0F11                     	;# 
  1031  0F12                     	;# 
  1032  0F13                     	;# 
  1033  0F14                     	;# 
  1034  0F15                     	;# 
  1035  0F16                     	;# 
  1036  0F17                     	;# 
  1037  0F18                     	;# 
  1038  0F19                     	;# 
  1039  0F1A                     	;# 
  1040  0F1B                     	;# 
  1041  0F1C                     	;# 
  1042  0F1D                     	;# 
  1043  0F1E                     	;# 
  1044  0F1F                     	;# 
  1045  0F20                     	;# 
  1046  0F21                     	;# 
  1047  0F22                     	;# 
  1048  0F23                     	;# 
  1049  0F24                     	;# 
  1050  0F25                     	;# 
  1051  0F26                     	;# 
  1052  0F27                     	;# 
  1053  0F38                     	;# 
  1054  0F39                     	;# 
  1055  0F3A                     	;# 
  1056  0F3B                     	;# 
  1057  0F3C                     	;# 
  1058  0F3D                     	;# 
  1059  0F3E                     	;# 
  1060  0F3F                     	;# 
  1061  0F40                     	;# 
  1062  0F41                     	;# 
  1063  0F43                     	;# 
  1064  0F44                     	;# 
  1065  0F45                     	;# 
  1066  0F46                     	;# 
  1067  0F47                     	;# 
  1068  0F48                     	;# 
  1069  0F49                     	;# 
  1070  0F4A                     	;# 
  1071  0F4B                     	;# 
  1072  0F4C                     	;# 
  1073  0F4E                     	;# 
  1074  0F4F                     	;# 
  1075  0F50                     	;# 
  1076  0F51                     	;# 
  1077  0F52                     	;# 
  1078  0F53                     	;# 
  1079  0F54                     	;# 
  1080  0F55                     	;# 
  1081  0F56                     	;# 
  1082  0F57                     	;# 
  1083  0F65                     	;# 
  1084  0F68                     	;# 
  1085  0F69                     	;# 
  1086  0F6A                     	;# 
  1087  0F6B                     	;# 
  1088  0FE4                     	;# 
  1089  0FE5                     	;# 
  1090  0FE6                     	;# 
  1091  0FE7                     	;# 
  1092  0FE8                     	;# 
  1093  0FE9                     	;# 
  1094  0FEA                     	;# 
  1095  0FEB                     	;# 
  1096  0FED                     	;# 
  1097  0FEE                     	;# 
  1098  0FEF                     	;# 
  1099  0000                     	;# 
  1100  0001                     	;# 
  1101  0002                     	;# 
  1102  0003                     	;# 
  1103  0004                     	;# 
  1104  0005                     	;# 
  1105  0006                     	;# 
  1106  0007                     	;# 
  1107  0008                     	;# 
  1108  0009                     	;# 
  1109  000A                     	;# 
  1110  000B                     	;# 
  1111  000C                     	;# 
  1112  000D                     	;# 
  1113  000E                     	;# 
  1114  0010                     	;# 
  1115  0011                     	;# 
  1116  0012                     	;# 
  1117  0013                     	;# 
  1118  0016                     	;# 
  1119  0017                     	;# 
  1120  0018                     	;# 
  1121  001C                     	;# 
  1122  001C                     	;# 
  1123  001D                     	;# 
  1124  001D                     	;# 
  1125  001E                     	;# 
  1126  001F                     	;# 
  1127  008C                     	;# 
  1128  008C                     	;# 
  1129  008D                     	;# 
  1130  008E                     	;# 
  1131  008E                     	;# 
  1132  008F                     	;# 
  1133  0090                     	;# 
  1134  0090                     	;# 
  1135  0091                     	;# 
  1136  0093                     	;# 
  1137  0094                     	;# 
  1138  0095                     	;# 
  1139  0096                     	;# 
  1140  0097                     	;# 
  1141  0098                     	;# 
  1142  0099                     	;# 
  1143  009A                     	;# 
  1144  009B                     	;# 
  1145  009C                     	;# 
  1146  009D                     	;# 
  1147  009E                     	;# 
  1148  010C                     	;# 
  1149  010D                     	;# 
  1150  010E                     	;# 
  1151  010E                     	;# 
  1152  010F                     	;# 
  1153  0110                     	;# 
  1154  0110                     	;# 
  1155  0111                     	;# 
  1156  0112                     	;# 
  1157  0112                     	;# 
  1158  0113                     	;# 
  1159  0114                     	;# 
  1160  0114                     	;# 
  1161  0115                     	;# 
  1162  0116                     	;# 
  1163  0116                     	;# 
  1164  0117                     	;# 
  1165  0119                     	;# 
  1166  0119                     	;# 
  1167  0119                     	;# 
  1168  011A                     	;# 
  1169  011A                     	;# 
  1170  011A                     	;# 
  1171  011B                     	;# 
  1172  011B                     	;# 
  1173  011B                     	;# 
  1174  011B                     	;# 
  1175  011B                     	;# 
  1176  011C                     	;# 
  1177  011C                     	;# 
  1178  011C                     	;# 
  1179  011D                     	;# 
  1180  011D                     	;# 
  1181  011D                     	;# 
  1182  011E                     	;# 
  1183  011E                     	;# 
  1184  011E                     	;# 
  1185  011F                     	;# 
  1186  011F                     	;# 
  1187  011F                     	;# 
  1188  011F                     	;# 
  1189  011F                     	;# 
  1190  018C                     	;# 
  1191  018D                     	;# 
  1192  018E                     	;# 
  1193  018F                     	;# 
  1194  0190                     	;# 
  1195  0191                     	;# 
  1196  0192                     	;# 
  1197  0196                     	;# 
  1198  0197                     	;# 
  1199  0198                     	;# 
  1200  0199                     	;# 
  1201  019A                     	;# 
  1202  019B                     	;# 
  1203  019C                     	;# 
  1204  020C                     	;# 
  1205  020C                     	;# 
  1206  020D                     	;# 
  1207  020E                     	;# 
  1208  020F                     	;# 
  1209  020F                     	;# 
  1210  0210                     	;# 
  1211  0210                     	;# 
  1212  0211                     	;# 
  1213  0211                     	;# 
  1214  0212                     	;# 
  1215  0212                     	;# 
  1216  0213                     	;# 
  1217  0214                     	;# 
  1218  0215                     	;# 
  1219  0215                     	;# 
  1220  0216                     	;# 
  1221  0216                     	;# 
  1222  0217                     	;# 
  1223  0217                     	;# 
  1224  0218                     	;# 
  1225  0218                     	;# 
  1226  0219                     	;# 
  1227  021A                     	;# 
  1228  021B                     	;# 
  1229  021B                     	;# 
  1230  021C                     	;# 
  1231  021C                     	;# 
  1232  021D                     	;# 
  1233  021D                     	;# 
  1234  021E                     	;# 
  1235  021F                     	;# 
  1236  028C                     	;# 
  1237  028C                     	;# 
  1238  028D                     	;# 
  1239  028D                     	;# 
  1240  028E                     	;# 
  1241  028F                     	;# 
  1242  0290                     	;# 
  1243  0290                     	;# 
  1244  0291                     	;# 
  1245  0292                     	;# 
  1246  0292                     	;# 
  1247  0293                     	;# 
  1248  0293                     	;# 
  1249  0294                     	;# 
  1250  0295                     	;# 
  1251  0296                     	;# 
  1252  0296                     	;# 
  1253  0297                     	;# 
  1254  0298                     	;# 
  1255  0298                     	;# 
  1256  0299                     	;# 
  1257  0299                     	;# 
  1258  029A                     	;# 
  1259  029B                     	;# 
  1260  029C                     	;# 
  1261  029C                     	;# 
  1262  029D                     	;# 
  1263  030C                     	;# 
  1264  030C                     	;# 
  1265  030D                     	;# 
  1266  030E                     	;# 
  1267  030F                     	;# 
  1268  0310                     	;# 
  1269  0310                     	;# 
  1270  0311                     	;# 
  1271  0312                     	;# 
  1272  0313                     	;# 
  1273  0314                     	;# 
  1274  0314                     	;# 
  1275  0315                     	;# 
  1276  0316                     	;# 
  1277  0317                     	;# 
  1278  0318                     	;# 
  1279  0318                     	;# 
  1280  0319                     	;# 
  1281  031A                     	;# 
  1282  031B                     	;# 
  1283  031C                     	;# 
  1284  031C                     	;# 
  1285  031D                     	;# 
  1286  031E                     	;# 
  1287  031F                     	;# 
  1288  038C                     	;# 
  1289  038C                     	;# 
  1290  038D                     	;# 
  1291  038E                     	;# 
  1292  0390                     	;# 
  1293  0390                     	;# 
  1294  0391                     	;# 
  1295  0392                     	;# 
  1296  040C                     	;# 
  1297  040D                     	;# 
  1298  040E                     	;# 
  1299  040F                     	;# 
  1300  0410                     	;# 
  1301  0411                     	;# 
  1302  0416                     	;# 
  1303  0416                     	;# 
  1304  0417                     	;# 
  1305  0418                     	;# 
  1306  0418                     	;# 
  1307  0419                     	;# 
  1308  041A                     	;# 
  1309  041A                     	;# 
  1310  041B                     	;# 
  1311  041C                     	;# 
  1312  041C                     	;# 
  1313  041D                     	;# 
  1314  041E                     	;# 
  1315  041F                     	;# 
  1316  048C                     	;# 
  1317  048C                     	;# 
  1318  048D                     	;# 
  1319  048E                     	;# 
  1320  048F                     	;# 
  1321  048F                     	;# 
  1322  0490                     	;# 
  1323  0491                     	;# 
  1324  0492                     	;# 
  1325  0492                     	;# 
  1326  0493                     	;# 
  1327  0494                     	;# 
  1328  0495                     	;# 
  1329  0495                     	;# 
  1330  0496                     	;# 
  1331  0497                     	;# 
  1332  0498                     	;# 
  1333  0499                     	;# 
  1334  049A                     	;# 
  1335  049B                     	;# 
  1336  049C                     	;# 
  1337  049D                     	;# 
  1338  050C                     	;# 
  1339  050C                     	;# 
  1340  050D                     	;# 
  1341  050E                     	;# 
  1342  050F                     	;# 
  1343  050F                     	;# 
  1344  0510                     	;# 
  1345  0511                     	;# 
  1346  0512                     	;# 
  1347  0512                     	;# 
  1348  0513                     	;# 
  1349  0514                     	;# 
  1350  0515                     	;# 
  1351  0515                     	;# 
  1352  0516                     	;# 
  1353  0517                     	;# 
  1354  0518                     	;# 
  1355  0519                     	;# 
  1356  051A                     	;# 
  1357  051B                     	;# 
  1358  051C                     	;# 
  1359  051D                     	;# 
  1360  058C                     	;# 
  1361  058C                     	;# 
  1362  058D                     	;# 
  1363  058E                     	;# 
  1364  058F                     	;# 
  1365  058F                     	;# 
  1366  0590                     	;# 
  1367  0591                     	;# 
  1368  0592                     	;# 
  1369  0593                     	;# 
  1370  060C                     	;# 
  1371  060D                     	;# 
  1372  060E                     	;# 
  1373  060F                     	;# 
  1374  0610                     	;# 
  1375  0611                     	;# 
  1376  0612                     	;# 
  1377  0613                     	;# 
  1378  0614                     	;# 
  1379  0616                     	;# 
  1380  0617                     	;# 
  1381  0618                     	;# 
  1382  0619                     	;# 
  1383  061A                     	;# 
  1384  061B                     	;# 
  1385  061C                     	;# 
  1386  061D                     	;# 
  1387  061E                     	;# 
  1388  068C                     	;# 
  1389  068D                     	;# 
  1390  068E                     	;# 
  1391  068F                     	;# 
  1392  0690                     	;# 
  1393  0691                     	;# 
  1394  0692                     	;# 
  1395  0693                     	;# 
  1396  0694                     	;# 
  1397  070C                     	;# 
  1398  070D                     	;# 
  1399  070E                     	;# 
  1400  070F                     	;# 
  1401  0710                     	;# 
  1402  0711                     	;# 
  1403  0712                     	;# 
  1404  0713                     	;# 
  1405  0714                     	;# 
  1406  0716                     	;# 
  1407  0717                     	;# 
  1408  0718                     	;# 
  1409  0719                     	;# 
  1410  071A                     	;# 
  1411  071B                     	;# 
  1412  071C                     	;# 
  1413  071D                     	;# 
  1414  071E                     	;# 
  1415  0796                     	;# 
  1416  0797                     	;# 
  1417  0798                     	;# 
  1418  0799                     	;# 
  1419  079A                     	;# 
  1420  079B                     	;# 
  1421  080C                     	;# 
  1422  080D                     	;# 
  1423  080E                     	;# 
  1424  080F                     	;# 
  1425  0810                     	;# 
  1426  0811                     	;# 
  1427  0812                     	;# 
  1428  0813                     	;# 
  1429  0814                     	;# 
  1430  081A                     	;# 
  1431  081B                     	;# 
  1432  081C                     	;# 
  1433  081D                     	;# 
  1434  081E                     	;# 
  1435  081F                     	;# 
  1436  088C                     	;# 
  1437  088D                     	;# 
  1438  088E                     	;# 
  1439  088F                     	;# 
  1440  0890                     	;# 
  1441  0891                     	;# 
  1442  0892                     	;# 
  1443  0893                     	;# 
  1444  0895                     	;# 
  1445  0896                     	;# 
  1446  0897                     	;# 
  1447  0898                     	;# 
  1448  0899                     	;# 
  1449  089A                     	;# 
  1450  089B                     	;# 
  1451  090C                     	;# 
  1452  090E                     	;# 
  1453  090F                     	;# 
  1454  091F                     	;# 
  1455  091F                     	;# 
  1456  098F                     	;# 
  1457  098F                     	;# 
  1458  0990                     	;# 
  1459  0991                     	;# 
  1460  0992                     	;# 
  1461  0993                     	;# 
  1462  0994                     	;# 
  1463  0995                     	;# 
  1464  0996                     	;# 
  1465  0997                     	;# 
  1466  0E0F                     	;# 
  1467  0E10                     	;# 
  1468  0E11                     	;# 
  1469  0E12                     	;# 
  1470  0E13                     	;# 
  1471  0E14                     	;# 
  1472  0E15                     	;# 
  1473  0E16                     	;# 
  1474  0E17                     	;# 
  1475  0E18                     	;# 
  1476  0E19                     	;# 
  1477  0E1A                     	;# 
  1478  0E1B                     	;# 
  1479  0E1C                     	;# 
  1480  0E1D                     	;# 
  1481  0E1E                     	;# 
  1482  0E1F                     	;# 
  1483  0E20                     	;# 
  1484  0E21                     	;# 
  1485  0E22                     	;# 
  1486  0E23                     	;# 
  1487  0E24                     	;# 
  1488  0E25                     	;# 
  1489  0E26                     	;# 
  1490  0E27                     	;# 
  1491  0E28                     	;# 
  1492  0E29                     	;# 
  1493  0E2A                     	;# 
  1494  0E2B                     	;# 
  1495  0E2C                     	;# 
  1496  0E2D                     	;# 
  1497  0E2E                     	;# 
  1498  0E2F                     	;# 
  1499  0E30                     	;# 
  1500  0E31                     	;# 
  1501  0E32                     	;# 
  1502  0E33                     	;# 
  1503  0E34                     	;# 
  1504  0E35                     	;# 
  1505  0E36                     	;# 
  1506  0E37                     	;# 
  1507  0E8F                     	;# 
  1508  0E90                     	;# 
  1509  0E91                     	;# 
  1510  0E92                     	;# 
  1511  0E93                     	;# 
  1512  0E94                     	;# 
  1513  0E95                     	;# 
  1514  0E96                     	;# 
  1515  0E97                     	;# 
  1516  0E9C                     	;# 
  1517  0E9D                     	;# 
  1518  0E9E                     	;# 
  1519  0EA1                     	;# 
  1520  0EA2                     	;# 
  1521  0EA3                     	;# 
  1522  0EA4                     	;# 
  1523  0EA5                     	;# 
  1524  0EA9                     	;# 
  1525  0EAA                     	;# 
  1526  0EAB                     	;# 
  1527  0EAC                     	;# 
  1528  0EB1                     	;# 
  1529  0EB2                     	;# 
  1530  0EB3                     	;# 
  1531  0EB8                     	;# 
  1532  0EB9                     	;# 
  1533  0EBA                     	;# 
  1534  0EBB                     	;# 
  1535  0EBC                     	;# 
  1536  0EBD                     	;# 
  1537  0EBE                     	;# 
  1538  0EC3                     	;# 
  1539  0EC5                     	;# 
  1540  0EC6                     	;# 
  1541  0EC7                     	;# 
  1542  0EC8                     	;# 
  1543  0EC9                     	;# 
  1544  0ECA                     	;# 
  1545  0ECB                     	;# 
  1546  0ECC                     	;# 
  1547  0F10                     	;# 
  1548  0F11                     	;# 
  1549  0F12                     	;# 
  1550  0F13                     	;# 
  1551  0F14                     	;# 
  1552  0F15                     	;# 
  1553  0F16                     	;# 
  1554  0F17                     	;# 
  1555  0F18                     	;# 
  1556  0F19                     	;# 
  1557  0F1A                     	;# 
  1558  0F1B                     	;# 
  1559  0F1C                     	;# 
  1560  0F1D                     	;# 
  1561  0F1E                     	;# 
  1562  0F1F                     	;# 
  1563  0F20                     	;# 
  1564  0F21                     	;# 
  1565  0F22                     	;# 
  1566  0F23                     	;# 
  1567  0F24                     	;# 
  1568  0F25                     	;# 
  1569  0F26                     	;# 
  1570  0F27                     	;# 
  1571  0F38                     	;# 
  1572  0F39                     	;# 
  1573  0F3A                     	;# 
  1574  0F3B                     	;# 
  1575  0F3C                     	;# 
  1576  0F3D                     	;# 
  1577  0F3E                     	;# 
  1578  0F3F                     	;# 
  1579  0F40                     	;# 
  1580  0F41                     	;# 
  1581  0F43                     	;# 
  1582  0F44                     	;# 
  1583  0F45                     	;# 
  1584  0F46                     	;# 
  1585  0F47                     	;# 
  1586  0F48                     	;# 
  1587  0F49                     	;# 
  1588  0F4A                     	;# 
  1589  0F4B                     	;# 
  1590  0F4C                     	;# 
  1591  0F4E                     	;# 
  1592  0F4F                     	;# 
  1593  0F50                     	;# 
  1594  0F51                     	;# 
  1595  0F52                     	;# 
  1596  0F53                     	;# 
  1597  0F54                     	;# 
  1598  0F55                     	;# 
  1599  0F56                     	;# 
  1600  0F57                     	;# 
  1601  0F65                     	;# 
  1602  0F68                     	;# 
  1603  0F69                     	;# 
  1604  0F6A                     	;# 
  1605  0F6B                     	;# 
  1606  0FE4                     	;# 
  1607  0FE5                     	;# 
  1608  0FE6                     	;# 
  1609  0FE7                     	;# 
  1610  0FE8                     	;# 
  1611  0FE9                     	;# 
  1612  0FEA                     	;# 
  1613  0FEB                     	;# 
  1614  0FED                     	;# 
  1615  0FEE                     	;# 
  1616  0FEF                     	;# 
  1617  0000                     	;# 
  1618  0001                     	;# 
  1619  0002                     	;# 
  1620  0003                     	;# 
  1621  0004                     	;# 
  1622  0005                     	;# 
  1623  0006                     	;# 
  1624  0007                     	;# 
  1625  0008                     	;# 
  1626  0009                     	;# 
  1627  000A                     	;# 
  1628  000B                     	;# 
  1629  000C                     	;# 
  1630  000D                     	;# 
  1631  000E                     	;# 
  1632  0010                     	;# 
  1633  0011                     	;# 
  1634  0012                     	;# 
  1635  0013                     	;# 
  1636  0016                     	;# 
  1637  0017                     	;# 
  1638  0018                     	;# 
  1639  001C                     	;# 
  1640  001C                     	;# 
  1641  001D                     	;# 
  1642  001D                     	;# 
  1643  001E                     	;# 
  1644  001F                     	;# 
  1645  008C                     	;# 
  1646  008C                     	;# 
  1647  008D                     	;# 
  1648  008E                     	;# 
  1649  008E                     	;# 
  1650  008F                     	;# 
  1651  0090                     	;# 
  1652  0090                     	;# 
  1653  0091                     	;# 
  1654  0093                     	;# 
  1655  0094                     	;# 
  1656  0095                     	;# 
  1657  0096                     	;# 
  1658  0097                     	;# 
  1659  0098                     	;# 
  1660  0099                     	;# 
  1661  009A                     	;# 
  1662  009B                     	;# 
  1663  009C                     	;# 
  1664  009D                     	;# 
  1665  009E                     	;# 
  1666  010C                     	;# 
  1667  010D                     	;# 
  1668  010E                     	;# 
  1669  010E                     	;# 
  1670  010F                     	;# 
  1671  0110                     	;# 
  1672  0110                     	;# 
  1673  0111                     	;# 
  1674  0112                     	;# 
  1675  0112                     	;# 
  1676  0113                     	;# 
  1677  0114                     	;# 
  1678  0114                     	;# 
  1679  0115                     	;# 
  1680  0116                     	;# 
  1681  0116                     	;# 
  1682  0117                     	;# 
  1683  0119                     	;# 
  1684  0119                     	;# 
  1685  0119                     	;# 
  1686  011A                     	;# 
  1687  011A                     	;# 
  1688  011A                     	;# 
  1689  011B                     	;# 
  1690  011B                     	;# 
  1691  011B                     	;# 
  1692  011B                     	;# 
  1693  011B                     	;# 
  1694  011C                     	;# 
  1695  011C                     	;# 
  1696  011C                     	;# 
  1697  011D                     	;# 
  1698  011D                     	;# 
  1699  011D                     	;# 
  1700  011E                     	;# 
  1701  011E                     	;# 
  1702  011E                     	;# 
  1703  011F                     	;# 
  1704  011F                     	;# 
  1705  011F                     	;# 
  1706  011F                     	;# 
  1707  011F                     	;# 
  1708  018C                     	;# 
  1709  018D                     	;# 
  1710  018E                     	;# 
  1711  018F                     	;# 
  1712  0190                     	;# 
  1713  0191                     	;# 
  1714  0192                     	;# 
  1715  0196                     	;# 
  1716  0197                     	;# 
  1717  0198                     	;# 
  1718  0199                     	;# 
  1719  019A                     	;# 
  1720  019B                     	;# 
  1721  019C                     	;# 
  1722  020C                     	;# 
  1723  020C                     	;# 
  1724  020D                     	;# 
  1725  020E                     	;# 
  1726  020F                     	;# 
  1727  020F                     	;# 
  1728  0210                     	;# 
  1729  0210                     	;# 
  1730  0211                     	;# 
  1731  0211                     	;# 
  1732  0212                     	;# 
  1733  0212                     	;# 
  1734  0213                     	;# 
  1735  0214                     	;# 
  1736  0215                     	;# 
  1737  0215                     	;# 
  1738  0216                     	;# 
  1739  0216                     	;# 
  1740  0217                     	;# 
  1741  0217                     	;# 
  1742  0218                     	;# 
  1743  0218                     	;# 
  1744  0219                     	;# 
  1745  021A                     	;# 
  1746  021B                     	;# 
  1747  021B                     	;# 
  1748  021C                     	;# 
  1749  021C                     	;# 
  1750  021D                     	;# 
  1751  021D                     	;# 
  1752  021E                     	;# 
  1753  021F                     	;# 
  1754  028C                     	;# 
  1755  028C                     	;# 
  1756  028D                     	;# 
  1757  028D                     	;# 
  1758  028E                     	;# 
  1759  028F                     	;# 
  1760  0290                     	;# 
  1761  0290                     	;# 
  1762  0291                     	;# 
  1763  0292                     	;# 
  1764  0292                     	;# 
  1765  0293                     	;# 
  1766  0293                     	;# 
  1767  0294                     	;# 
  1768  0295                     	;# 
  1769  0296                     	;# 
  1770  0296                     	;# 
  1771  0297                     	;# 
  1772  0298                     	;# 
  1773  0298                     	;# 
  1774  0299                     	;# 
  1775  0299                     	;# 
  1776  029A                     	;# 
  1777  029B                     	;# 
  1778  029C                     	;# 
  1779  029C                     	;# 
  1780  029D                     	;# 
  1781  030C                     	;# 
  1782  030C                     	;# 
  1783  030D                     	;# 
  1784  030E                     	;# 
  1785  030F                     	;# 
  1786  0310                     	;# 
  1787  0310                     	;# 
  1788  0311                     	;# 
  1789  0312                     	;# 
  1790  0313                     	;# 
  1791  0314                     	;# 
  1792  0314                     	;# 
  1793  0315                     	;# 
  1794  0316                     	;# 
  1795  0317                     	;# 
  1796  0318                     	;# 
  1797  0318                     	;# 
  1798  0319                     	;# 
  1799  031A                     	;# 
  1800  031B                     	;# 
  1801  031C                     	;# 
  1802  031C                     	;# 
  1803  031D                     	;# 
  1804  031E                     	;# 
  1805  031F                     	;# 
  1806  038C                     	;# 
  1807  038C                     	;# 
  1808  038D                     	;# 
  1809  038E                     	;# 
  1810  0390                     	;# 
  1811  0390                     	;# 
  1812  0391                     	;# 
  1813  0392                     	;# 
  1814  040C                     	;# 
  1815  040D                     	;# 
  1816  040E                     	;# 
  1817  040F                     	;# 
  1818  0410                     	;# 
  1819  0411                     	;# 
  1820  0416                     	;# 
  1821  0416                     	;# 
  1822  0417                     	;# 
  1823  0418                     	;# 
  1824  0418                     	;# 
  1825  0419                     	;# 
  1826  041A                     	;# 
  1827  041A                     	;# 
  1828  041B                     	;# 
  1829  041C                     	;# 
  1830  041C                     	;# 
  1831  041D                     	;# 
  1832  041E                     	;# 
  1833  041F                     	;# 
  1834  048C                     	;# 
  1835  048C                     	;# 
  1836  048D                     	;# 
  1837  048E                     	;# 
  1838  048F                     	;# 
  1839  048F                     	;# 
  1840  0490                     	;# 
  1841  0491                     	;# 
  1842  0492                     	;# 
  1843  0492                     	;# 
  1844  0493                     	;# 
  1845  0494                     	;# 
  1846  0495                     	;# 
  1847  0495                     	;# 
  1848  0496                     	;# 
  1849  0497                     	;# 
  1850  0498                     	;# 
  1851  0499                     	;# 
  1852  049A                     	;# 
  1853  049B                     	;# 
  1854  049C                     	;# 
  1855  049D                     	;# 
  1856  050C                     	;# 
  1857  050C                     	;# 
  1858  050D                     	;# 
  1859  050E                     	;# 
  1860  050F                     	;# 
  1861  050F                     	;# 
  1862  0510                     	;# 
  1863  0511                     	;# 
  1864  0512                     	;# 
  1865  0512                     	;# 
  1866  0513                     	;# 
  1867  0514                     	;# 
  1868  0515                     	;# 
  1869  0515                     	;# 
  1870  0516                     	;# 
  1871  0517                     	;# 
  1872  0518                     	;# 
  1873  0519                     	;# 
  1874  051A                     	;# 
  1875  051B                     	;# 
  1876  051C                     	;# 
  1877  051D                     	;# 
  1878  058C                     	;# 
  1879  058C                     	;# 
  1880  058D                     	;# 
  1881  058E                     	;# 
  1882  058F                     	;# 
  1883  058F                     	;# 
  1884  0590                     	;# 
  1885  0591                     	;# 
  1886  0592                     	;# 
  1887  0593                     	;# 
  1888  060C                     	;# 
  1889  060D                     	;# 
  1890  060E                     	;# 
  1891  060F                     	;# 
  1892  0610                     	;# 
  1893  0611                     	;# 
  1894  0612                     	;# 
  1895  0613                     	;# 
  1896  0614                     	;# 
  1897  0616                     	;# 
  1898  0617                     	;# 
  1899  0618                     	;# 
  1900  0619                     	;# 
  1901  061A                     	;# 
  1902  061B                     	;# 
  1903  061C                     	;# 
  1904  061D                     	;# 
  1905  061E                     	;# 
  1906  068C                     	;# 
  1907  068D                     	;# 
  1908  068E                     	;# 
  1909  068F                     	;# 
  1910  0690                     	;# 
  1911  0691                     	;# 
  1912  0692                     	;# 
  1913  0693                     	;# 
  1914  0694                     	;# 
  1915  070C                     	;# 
  1916  070D                     	;# 
  1917  070E                     	;# 
  1918  070F                     	;# 
  1919  0710                     	;# 
  1920  0711                     	;# 
  1921  0712                     	;# 
  1922  0713                     	;# 
  1923  0714                     	;# 
  1924  0716                     	;# 
  1925  0717                     	;# 
  1926  0718                     	;# 
  1927  0719                     	;# 
  1928  071A                     	;# 
  1929  071B                     	;# 
  1930  071C                     	;# 
  1931  071D                     	;# 
  1932  071E                     	;# 
  1933  0796                     	;# 
  1934  0797                     	;# 
  1935  0798                     	;# 
  1936  0799                     	;# 
  1937  079A                     	;# 
  1938  079B                     	;# 
  1939  080C                     	;# 
  1940  080D                     	;# 
  1941  080E                     	;# 
  1942  080F                     	;# 
  1943  0810                     	;# 
  1944  0811                     	;# 
  1945  0812                     	;# 
  1946  0813                     	;# 
  1947  0814                     	;# 
  1948  081A                     	;# 
  1949  081B                     	;# 
  1950  081C                     	;# 
  1951  081D                     	;# 
  1952  081E                     	;# 
  1953  081F                     	;# 
  1954  088C                     	;# 
  1955  088D                     	;# 
  1956  088E                     	;# 
  1957  088F                     	;# 
  1958  0890                     	;# 
  1959  0891                     	;# 
  1960  0892                     	;# 
  1961  0893                     	;# 
  1962  0895                     	;# 
  1963  0896                     	;# 
  1964  0897                     	;# 
  1965  0898                     	;# 
  1966  0899                     	;# 
  1967  089A                     	;# 
  1968  089B                     	;# 
  1969  090C                     	;# 
  1970  090E                     	;# 
  1971  090F                     	;# 
  1972  091F                     	;# 
  1973  091F                     	;# 
  1974  098F                     	;# 
  1975  098F                     	;# 
  1976  0990                     	;# 
  1977  0991                     	;# 
  1978  0992                     	;# 
  1979  0993                     	;# 
  1980  0994                     	;# 
  1981  0995                     	;# 
  1982  0996                     	;# 
  1983  0997                     	;# 
  1984  0E0F                     	;# 
  1985  0E10                     	;# 
  1986  0E11                     	;# 
  1987  0E12                     	;# 
  1988  0E13                     	;# 
  1989  0E14                     	;# 
  1990  0E15                     	;# 
  1991  0E16                     	;# 
  1992  0E17                     	;# 
  1993  0E18                     	;# 
  1994  0E19                     	;# 
  1995  0E1A                     	;# 
  1996  0E1B                     	;# 
  1997  0E1C                     	;# 
  1998  0E1D                     	;# 
  1999  0E1E                     	;# 
  2000  0E1F                     	;# 
  2001  0E20                     	;# 
  2002  0E21                     	;# 
  2003  0E22                     	;# 
  2004  0E23                     	;# 
  2005  0E24                     	;# 
  2006  0E25                     	;# 
  2007  0E26                     	;# 
  2008  0E27                     	;# 
  2009  0E28                     	;# 
  2010  0E29                     	;# 
  2011  0E2A                     	;# 
  2012  0E2B                     	;# 
  2013  0E2C                     	;# 
  2014  0E2D                     	;# 
  2015  0E2E                     	;# 
  2016  0E2F                     	;# 
  2017  0E30                     	;# 
  2018  0E31                     	;# 
  2019  0E32                     	;# 
  2020  0E33                     	;# 
  2021  0E34                     	;# 
  2022  0E35                     	;# 
  2023  0E36                     	;# 
  2024  0E37                     	;# 
  2025  0E8F                     	;# 
  2026  0E90                     	;# 
  2027  0E91                     	;# 
  2028  0E92                     	;# 
  2029  0E93                     	;# 
  2030  0E94                     	;# 
  2031  0E95                     	;# 
  2032  0E96                     	;# 
  2033  0E97                     	;# 
  2034  0E9C                     	;# 
  2035  0E9D                     	;# 
  2036  0E9E                     	;# 
  2037  0EA1                     	;# 
  2038  0EA2                     	;# 
  2039  0EA3                     	;# 
  2040  0EA4                     	;# 
  2041  0EA5                     	;# 
  2042  0EA9                     	;# 
  2043  0EAA                     	;# 
  2044  0EAB                     	;# 
  2045  0EAC                     	;# 
  2046  0EB1                     	;# 
  2047  0EB2                     	;# 
  2048  0EB3                     	;# 
  2049  0EB8                     	;# 
  2050  0EB9                     	;# 
  2051  0EBA                     	;# 
  2052  0EBB                     	;# 
  2053  0EBC                     	;# 
  2054  0EBD                     	;# 
  2055  0EBE                     	;# 
  2056  0EC3                     	;# 
  2057  0EC5                     	;# 
  2058  0EC6                     	;# 
  2059  0EC7                     	;# 
  2060  0EC8                     	;# 
  2061  0EC9                     	;# 
  2062  0ECA                     	;# 
  2063  0ECB                     	;# 
  2064  0ECC                     	;# 
  2065  0F10                     	;# 
  2066  0F11                     	;# 
  2067  0F12                     	;# 
  2068  0F13                     	;# 
  2069  0F14                     	;# 
  2070  0F15                     	;# 
  2071  0F16                     	;# 
  2072  0F17                     	;# 
  2073  0F18                     	;# 
  2074  0F19                     	;# 
  2075  0F1A                     	;# 
  2076  0F1B                     	;# 
  2077  0F1C                     	;# 
  2078  0F1D                     	;# 
  2079  0F1E                     	;# 
  2080  0F1F                     	;# 
  2081  0F20                     	;# 
  2082  0F21                     	;# 
  2083  0F22                     	;# 
  2084  0F23                     	;# 
  2085  0F24                     	;# 
  2086  0F25                     	;# 
  2087  0F26                     	;# 
  2088  0F27                     	;# 
  2089  0F38                     	;# 
  2090  0F39                     	;# 
  2091  0F3A                     	;# 
  2092  0F3B                     	;# 
  2093  0F3C                     	;# 
  2094  0F3D                     	;# 
  2095  0F3E                     	;# 
  2096  0F3F                     	;# 
  2097  0F40                     	;# 
  2098  0F41                     	;# 
  2099  0F43                     	;# 
  2100  0F44                     	;# 
  2101  0F45                     	;# 
  2102  0F46                     	;# 
  2103  0F47                     	;# 
  2104  0F48                     	;# 
  2105  0F49                     	;# 
  2106  0F4A                     	;# 
  2107  0F4B                     	;# 
  2108  0F4C                     	;# 
  2109  0F4E                     	;# 
  2110  0F4F                     	;# 
  2111  0F50                     	;# 
  2112  0F51                     	;# 
  2113  0F52                     	;# 
  2114  0F53                     	;# 
  2115  0F54                     	;# 
  2116  0F55                     	;# 
  2117  0F56                     	;# 
  2118  0F57                     	;# 
  2119  0F65                     	;# 
  2120  0F68                     	;# 
  2121  0F69                     	;# 
  2122  0F6A                     	;# 
  2123  0F6B                     	;# 
  2124  0FE4                     	;# 
  2125  0FE5                     	;# 
  2126  0FE6                     	;# 
  2127  0FE7                     	;# 
  2128  0FE8                     	;# 
  2129  0FE9                     	;# 
  2130  0FEA                     	;# 
  2131  0FEB                     	;# 
  2132  0FED                     	;# 
  2133  0FEE                     	;# 
  2134  0FEF                     	;# 
  2135  0000                     	;# 
  2136  0001                     	;# 
  2137  0002                     	;# 
  2138  0003                     	;# 
  2139  0004                     	;# 
  2140  0005                     	;# 
  2141  0006                     	;# 
  2142  0007                     	;# 
  2143  0008                     	;# 
  2144  0009                     	;# 
  2145  000A                     	;# 
  2146  000B                     	;# 
  2147  000C                     	;# 
  2148  000D                     	;# 
  2149  000E                     	;# 
  2150  0010                     	;# 
  2151  0011                     	;# 
  2152  0012                     	;# 
  2153  0013                     	;# 
  2154  0016                     	;# 
  2155  0017                     	;# 
  2156  0018                     	;# 
  2157  001C                     	;# 
  2158  001C                     	;# 
  2159  001D                     	;# 
  2160  001D                     	;# 
  2161  001E                     	;# 
  2162  001F                     	;# 
  2163  008C                     	;# 
  2164  008C                     	;# 
  2165  008D                     	;# 
  2166  008E                     	;# 
  2167  008E                     	;# 
  2168  008F                     	;# 
  2169  0090                     	;# 
  2170  0090                     	;# 
  2171  0091                     	;# 
  2172  0093                     	;# 
  2173  0094                     	;# 
  2174  0095                     	;# 
  2175  0096                     	;# 
  2176  0097                     	;# 
  2177  0098                     	;# 
  2178  0099                     	;# 
  2179  009A                     	;# 
  2180  009B                     	;# 
  2181  009C                     	;# 
  2182  009D                     	;# 
  2183  009E                     	;# 
  2184  010C                     	;# 
  2185  010D                     	;# 
  2186  010E                     	;# 
  2187  010E                     	;# 
  2188  010F                     	;# 
  2189  0110                     	;# 
  2190  0110                     	;# 
  2191  0111                     	;# 
  2192  0112                     	;# 
  2193  0112                     	;# 
  2194  0113                     	;# 
  2195  0114                     	;# 
  2196  0114                     	;# 
  2197  0115                     	;# 
  2198  0116                     	;# 
  2199  0116                     	;# 
  2200  0117                     	;# 
  2201  0119                     	;# 
  2202  0119                     	;# 
  2203  0119                     	;# 
  2204  011A                     	;# 
  2205  011A                     	;# 
  2206  011A                     	;# 
  2207  011B                     	;# 
  2208  011B                     	;# 
  2209  011B                     	;# 
  2210  011B                     	;# 
  2211  011B                     	;# 
  2212  011C                     	;# 
  2213  011C                     	;# 
  2214  011C                     	;# 
  2215  011D                     	;# 
  2216  011D                     	;# 
  2217  011D                     	;# 
  2218  011E                     	;# 
  2219  011E                     	;# 
  2220  011E                     	;# 
  2221  011F                     	;# 
  2222  011F                     	;# 
  2223  011F                     	;# 
  2224  011F                     	;# 
  2225  011F                     	;# 
  2226  018C                     	;# 
  2227  018D                     	;# 
  2228  018E                     	;# 
  2229  018F                     	;# 
  2230  0190                     	;# 
  2231  0191                     	;# 
  2232  0192                     	;# 
  2233  0196                     	;# 
  2234  0197                     	;# 
  2235  0198                     	;# 
  2236  0199                     	;# 
  2237  019A                     	;# 
  2238  019B                     	;# 
  2239  019C                     	;# 
  2240  020C                     	;# 
  2241  020C                     	;# 
  2242  020D                     	;# 
  2243  020E                     	;# 
  2244  020F                     	;# 
  2245  020F                     	;# 
  2246  0210                     	;# 
  2247  0210                     	;# 
  2248  0211                     	;# 
  2249  0211                     	;# 
  2250  0212                     	;# 
  2251  0212                     	;# 
  2252  0213                     	;# 
  2253  0214                     	;# 
  2254  0215                     	;# 
  2255  0215                     	;# 
  2256  0216                     	;# 
  2257  0216                     	;# 
  2258  0217                     	;# 
  2259  0217                     	;# 
  2260  0218                     	;# 
  2261  0218                     	;# 
  2262  0219                     	;# 
  2263  021A                     	;# 
  2264  021B                     	;# 
  2265  021B                     	;# 
  2266  021C                     	;# 
  2267  021C                     	;# 
  2268  021D                     	;# 
  2269  021D                     	;# 
  2270  021E                     	;# 
  2271  021F                     	;# 
  2272  028C                     	;# 
  2273  028C                     	;# 
  2274  028D                     	;# 
  2275  028D                     	;# 
  2276  028E                     	;# 
  2277  028F                     	;# 
  2278  0290                     	;# 
  2279  0290                     	;# 
  2280  0291                     	;# 
  2281  0292                     	;# 
  2282  0292                     	;# 
  2283  0293                     	;# 
  2284  0293                     	;# 
  2285  0294                     	;# 
  2286  0295                     	;# 
  2287  0296                     	;# 
  2288  0296                     	;# 
  2289  0297                     	;# 
  2290  0298                     	;# 
  2291  0298                     	;# 
  2292  0299                     	;# 
  2293  0299                     	;# 
  2294  029A                     	;# 
  2295  029B                     	;# 
  2296  029C                     	;# 
  2297  029C                     	;# 
  2298  029D                     	;# 
  2299  030C                     	;# 
  2300  030C                     	;# 
  2301  030D                     	;# 
  2302  030E                     	;# 
  2303  030F                     	;# 
  2304  0310                     	;# 
  2305  0310                     	;# 
  2306  0311                     	;# 
  2307  0312                     	;# 
  2308  0313                     	;# 
  2309  0314                     	;# 
  2310  0314                     	;# 
  2311  0315                     	;# 
  2312  0316                     	;# 
  2313  0317                     	;# 
  2314  0318                     	;# 
  2315  0318                     	;# 
  2316  0319                     	;# 
  2317  031A                     	;# 
  2318  031B                     	;# 
  2319  031C                     	;# 
  2320  031C                     	;# 
  2321  031D                     	;# 
  2322  031E                     	;# 
  2323  031F                     	;# 
  2324  038C                     	;# 
  2325  038C                     	;# 
  2326  038D                     	;# 
  2327  038E                     	;# 
  2328  0390                     	;# 
  2329  0390                     	;# 
  2330  0391                     	;# 
  2331  0392                     	;# 
  2332  040C                     	;# 
  2333  040D                     	;# 
  2334  040E                     	;# 
  2335  040F                     	;# 
  2336  0410                     	;# 
  2337  0411                     	;# 
  2338  0416                     	;# 
  2339  0416                     	;# 
  2340  0417                     	;# 
  2341  0418                     	;# 
  2342  0418                     	;# 
  2343  0419                     	;# 
  2344  041A                     	;# 
  2345  041A                     	;# 
  2346  041B                     	;# 
  2347  041C                     	;# 
  2348  041C                     	;# 
  2349  041D                     	;# 
  2350  041E                     	;# 
  2351  041F                     	;# 
  2352  048C                     	;# 
  2353  048C                     	;# 
  2354  048D                     	;# 
  2355  048E                     	;# 
  2356  048F                     	;# 
  2357  048F                     	;# 
  2358  0490                     	;# 
  2359  0491                     	;# 
  2360  0492                     	;# 
  2361  0492                     	;# 
  2362  0493                     	;# 
  2363  0494                     	;# 
  2364  0495                     	;# 
  2365  0495                     	;# 
  2366  0496                     	;# 
  2367  0497                     	;# 
  2368  0498                     	;# 
  2369  0499                     	;# 
  2370  049A                     	;# 
  2371  049B                     	;# 
  2372  049C                     	;# 
  2373  049D                     	;# 
  2374  050C                     	;# 
  2375  050C                     	;# 
  2376  050D                     	;# 
  2377  050E                     	;# 
  2378  050F                     	;# 
  2379  050F                     	;# 
  2380  0510                     	;# 
  2381  0511                     	;# 
  2382  0512                     	;# 
  2383  0512                     	;# 
  2384  0513                     	;# 
  2385  0514                     	;# 
  2386  0515                     	;# 
  2387  0515                     	;# 
  2388  0516                     	;# 
  2389  0517                     	;# 
  2390  0518                     	;# 
  2391  0519                     	;# 
  2392  051A                     	;# 
  2393  051B                     	;# 
  2394  051C                     	;# 
  2395  051D                     	;# 
  2396  058C                     	;# 
  2397  058C                     	;# 
  2398  058D                     	;# 
  2399  058E                     	;# 
  2400  058F                     	;# 
  2401  058F                     	;# 
  2402  0590                     	;# 
  2403  0591                     	;# 
  2404  0592                     	;# 
  2405  0593                     	;# 
  2406  060C                     	;# 
  2407  060D                     	;# 
  2408  060E                     	;# 
  2409  060F                     	;# 
  2410  0610                     	;# 
  2411  0611                     	;# 
  2412  0612                     	;# 
  2413  0613                     	;# 
  2414  0614                     	;# 
  2415  0616                     	;# 
  2416  0617                     	;# 
  2417  0618                     	;# 
  2418  0619                     	;# 
  2419  061A                     	;# 
  2420  061B                     	;# 
  2421  061C                     	;# 
  2422  061D                     	;# 
  2423  061E                     	;# 
  2424  068C                     	;# 
  2425  068D                     	;# 
  2426  068E                     	;# 
  2427  068F                     	;# 
  2428  0690                     	;# 
  2429  0691                     	;# 
  2430  0692                     	;# 
  2431  0693                     	;# 
  2432  0694                     	;# 
  2433  070C                     	;# 
  2434  070D                     	;# 
  2435  070E                     	;# 
  2436  070F                     	;# 
  2437  0710                     	;# 
  2438  0711                     	;# 
  2439  0712                     	;# 
  2440  0713                     	;# 
  2441  0714                     	;# 
  2442  0716                     	;# 
  2443  0717                     	;# 
  2444  0718                     	;# 
  2445  0719                     	;# 
  2446  071A                     	;# 
  2447  071B                     	;# 
  2448  071C                     	;# 
  2449  071D                     	;# 
  2450  071E                     	;# 
  2451  0796                     	;# 
  2452  0797                     	;# 
  2453  0798                     	;# 
  2454  0799                     	;# 
  2455  079A                     	;# 
  2456  079B                     	;# 
  2457  080C                     	;# 
  2458  080D                     	;# 
  2459  080E                     	;# 
  2460  080F                     	;# 
  2461  0810                     	;# 
  2462  0811                     	;# 
  2463  0812                     	;# 
  2464  0813                     	;# 
  2465  0814                     	;# 
  2466  081A                     	;# 
  2467  081B                     	;# 
  2468  081C                     	;# 
  2469  081D                     	;# 
  2470  081E                     	;# 
  2471  081F                     	;# 
  2472  088C                     	;# 
  2473  088D                     	;# 
  2474  088E                     	;# 
  2475  088F                     	;# 
  2476  0890                     	;# 
  2477  0891                     	;# 
  2478  0892                     	;# 
  2479  0893                     	;# 
  2480  0895                     	;# 
  2481  0896                     	;# 
  2482  0897                     	;# 
  2483  0898                     	;# 
  2484  0899                     	;# 
  2485  089A                     	;# 
  2486  089B                     	;# 
  2487  090C                     	;# 
  2488  090E                     	;# 
  2489  090F                     	;# 
  2490  091F                     	;# 
  2491  091F                     	;# 
  2492  098F                     	;# 
  2493  098F                     	;# 
  2494  0990                     	;# 
  2495  0991                     	;# 
  2496  0992                     	;# 
  2497  0993                     	;# 
  2498  0994                     	;# 
  2499  0995                     	;# 
  2500  0996                     	;# 
  2501  0997                     	;# 
  2502  0E0F                     	;# 
  2503  0E10                     	;# 
  2504  0E11                     	;# 
  2505  0E12                     	;# 
  2506  0E13                     	;# 
  2507  0E14                     	;# 
  2508  0E15                     	;# 
  2509  0E16                     	;# 
  2510  0E17                     	;# 
  2511  0E18                     	;# 
  2512  0E19                     	;# 
  2513  0E1A                     	;# 
  2514  0E1B                     	;# 
  2515  0E1C                     	;# 
  2516  0E1D                     	;# 
  2517  0E1E                     	;# 
  2518  0E1F                     	;# 
  2519  0E20                     	;# 
  2520  0E21                     	;# 
  2521  0E22                     	;# 
  2522  0E23                     	;# 
  2523  0E24                     	;# 
  2524  0E25                     	;# 
  2525  0E26                     	;# 
  2526  0E27                     	;# 
  2527  0E28                     	;# 
  2528  0E29                     	;# 
  2529  0E2A                     	;# 
  2530  0E2B                     	;# 
  2531  0E2C                     	;# 
  2532  0E2D                     	;# 
  2533  0E2E                     	;# 
  2534  0E2F                     	;# 
  2535  0E30                     	;# 
  2536  0E31                     	;# 
  2537  0E32                     	;# 
  2538  0E33                     	;# 
  2539  0E34                     	;# 
  2540  0E35                     	;# 
  2541  0E36                     	;# 
  2542  0E37                     	;# 
  2543  0E8F                     	;# 
  2544  0E90                     	;# 
  2545  0E91                     	;# 
  2546  0E92                     	;# 
  2547  0E93                     	;# 
  2548  0E94                     	;# 
  2549  0E95                     	;# 
  2550  0E96                     	;# 
  2551  0E97                     	;# 
  2552  0E9C                     	;# 
  2553  0E9D                     	;# 
  2554  0E9E                     	;# 
  2555  0EA1                     	;# 
  2556  0EA2                     	;# 
  2557  0EA3                     	;# 
  2558  0EA4                     	;# 
  2559  0EA5                     	;# 
  2560  0EA9                     	;# 
  2561  0EAA                     	;# 
  2562  0EAB                     	;# 
  2563  0EAC                     	;# 
  2564  0EB1                     	;# 
  2565  0EB2                     	;# 
  2566  0EB3                     	;# 
  2567  0EB8                     	;# 
  2568  0EB9                     	;# 
  2569  0EBA                     	;# 
  2570  0EBB                     	;# 
  2571  0EBC                     	;# 
  2572  0EBD                     	;# 
  2573  0EBE                     	;# 
  2574  0EC3                     	;# 
  2575  0EC5                     	;# 
  2576  0EC6                     	;# 
  2577  0EC7                     	;# 
  2578  0EC8                     	;# 
  2579  0EC9                     	;# 
  2580  0ECA                     	;# 
  2581  0ECB                     	;# 
  2582  0ECC                     	;# 
  2583  0F10                     	;# 
  2584  0F11                     	;# 
  2585  0F12                     	;# 
  2586  0F13                     	;# 
  2587  0F14                     	;# 
  2588  0F15                     	;# 
  2589  0F16                     	;# 
  2590  0F17                     	;# 
  2591  0F18                     	;# 
  2592  0F19                     	;# 
  2593  0F1A                     	;# 
  2594  0F1B                     	;# 
  2595  0F1C                     	;# 
  2596  0F1D                     	;# 
  2597  0F1E                     	;# 
  2598  0F1F                     	;# 
  2599  0F20                     	;# 
  2600  0F21                     	;# 
  2601  0F22                     	;# 
  2602  0F23                     	;# 
  2603  0F24                     	;# 
  2604  0F25                     	;# 
  2605  0F26                     	;# 
  2606  0F27                     	;# 
  2607  0F38                     	;# 
  2608  0F39                     	;# 
  2609  0F3A                     	;# 
  2610  0F3B                     	;# 
  2611  0F3C                     	;# 
  2612  0F3D                     	;# 
  2613  0F3E                     	;# 
  2614  0F3F                     	;# 
  2615  0F40                     	;# 
  2616  0F41                     	;# 
  2617  0F43                     	;# 
  2618  0F44                     	;# 
  2619  0F45                     	;# 
  2620  0F46                     	;# 
  2621  0F47                     	;# 
  2622  0F48                     	;# 
  2623  0F49                     	;# 
  2624  0F4A                     	;# 
  2625  0F4B                     	;# 
  2626  0F4C                     	;# 
  2627  0F4E                     	;# 
  2628  0F4F                     	;# 
  2629  0F50                     	;# 
  2630  0F51                     	;# 
  2631  0F52                     	;# 
  2632  0F53                     	;# 
  2633  0F54                     	;# 
  2634  0F55                     	;# 
  2635  0F56                     	;# 
  2636  0F57                     	;# 
  2637  0F65                     	;# 
  2638  0F68                     	;# 
  2639  0F69                     	;# 
  2640  0F6A                     	;# 
  2641  0F6B                     	;# 
  2642  0FE4                     	;# 
  2643  0FE5                     	;# 
  2644  0FE6                     	;# 
  2645  0FE7                     	;# 
  2646  0FE8                     	;# 
  2647  0FE9                     	;# 
  2648  0FEA                     	;# 
  2649  0FEB                     	;# 
  2650  0FED                     	;# 
  2651  0FEE                     	;# 
  2652  0FEF                     	;_matrix_word
  2653                           
  2654                           	psect	idataBANK0
  2655  0082                     __pidataBANK0:	
  2656                           
  2657                           ;initializer for _new
  2658  0082  3417               	retlw	23
  2659  0083  340E               	retlw	14
  2660  0084  3420               	retlw	32
  2661  0085  3424               	retlw	36
  2662                           
  2663                           ;initializer for _lock__
  2664  0086  3415               	retlw	21
  2665  0087  3418               	retlw	24
  2666  0088  340C               	retlw	12
  2667  0089  3414               	retlw	20
  2668                           
  2669                           ;initializer for _deny
  2670  008A  340D               	retlw	13
  2671  008B  340E               	retlw	14
  2672  008C  3417               	retlw	23
  2673  008D  3422               	retlw	34
  2674                           
  2675                           ;initializer for _open
  2676  008E  3418               	retlw	24
  2677  008F  3419               	retlw	25
  2678  0090  340E               	retlw	14
  2679  0091  3417               	retlw	23
  2680                           
  2681                           ;initializer for _entr
  2682  0092  340E               	retlw	14
  2683  0093  3417               	retlw	23
  2684  0094  341D               	retlw	29
  2685  0095  341B               	retlw	27
  2686                           
  2687                           ;initializer for _set
  2688  0096  341C               	retlw	28
  2689  0097  340E               	retlw	14
  2690  0098  341D               	retlw	29
  2691  0099  3424               	retlw	36
  2692                           
  2693                           	psect	idataBIGRAM
  2694  01AA                     __pidataBIGRAM:	
  2695                           
  2696                           ;initializer for _matrix_word
  2697  01AA  3401               	retlw	1
  2698  01AB  3401               	retlw	1
  2699  01AC  3401               	retlw	1
  2700  01AD  3401               	retlw	1
  2701  01AE  3401               	retlw	1
  2702  01AF  3401               	retlw	1
  2703  01B0  3400               	retlw	0
  2704  01B1  3400               	retlw	0
  2705  01B2  3401               	retlw	1
  2706  01B3  3401               	retlw	1
  2707  01B4  3400               	retlw	0
  2708  01B5  3400               	retlw	0
  2709  01B6  3400               	retlw	0
  2710  01B7  3400               	retlw	0
  2711  01B8  3401               	retlw	1
  2712  01B9  3401               	retlw	1
  2713  01BA  3400               	retlw	0
  2714  01BB  3401               	retlw	1
  2715  01BC  3401               	retlw	1
  2716  01BD  3400               	retlw	0
  2717  01BE  3401               	retlw	1
  2718  01BF  3401               	retlw	1
  2719  01C0  3401               	retlw	1
  2720  01C1  3401               	retlw	1
  2721  01C2  3401               	retlw	1
  2722  01C3  3400               	retlw	0
  2723  01C4  3400               	retlw	0
  2724  01C5  3401               	retlw	1
  2725  01C6  3400               	retlw	0
  2726  01C7  3401               	retlw	1
  2727  01C8  3401               	retlw	1
  2728  01C9  3400               	retlw	0
  2729  01CA  3400               	retlw	0
  2730  01CB  3401               	retlw	1
  2731  01CC  3401               	retlw	1
  2732  01CD  3401               	retlw	1
  2733  01CE  3400               	retlw	0
  2734  01CF  3401               	retlw	1
  2735  01D0  3401               	retlw	1
  2736  01D1  3400               	retlw	0
  2737  01D2  3401               	retlw	1
  2738  01D3  3401               	retlw	1
  2739  01D4  3401               	retlw	1
  2740  01D5  3400               	retlw	0
  2741  01D6  3401               	retlw	1
  2742  01D7  3401               	retlw	1
  2743  01D8  3401               	retlw	1
  2744  01D9  3401               	retlw	1
  2745  01DA  3401               	retlw	1
  2746  01DB  3401               	retlw	1
  2747  01DC  3401               	retlw	1
  2748  01DD  3401               	retlw	1
  2749  01DE  3400               	retlw	0
  2750  01DF  3400               	retlw	0
  2751  01E0  3400               	retlw	0
  2752  01E1  3400               	retlw	0
  2753  01E2  3401               	retlw	1
  2754  01E3  3401               	retlw	1
  2755  01E4  3401               	retlw	1
  2756  01E5  3401               	retlw	1
  2757  01E6  3401               	retlw	1
  2758  01E7  3401               	retlw	1
  2759  01E8  3401               	retlw	1
  2760  01E9  3401               	retlw	1
  2761  01EA  3401               	retlw	1
  2762  01EB  3401               	retlw	1
  2763  01EC  3401               	retlw	1
  2764  01ED  3400               	retlw	0
  2765  01EE  3401               	retlw	1
  2766  01EF  3401               	retlw	1
  2767  01F0  3401               	retlw	1
  2768  01F1  3401               	retlw	1
  2769  01F2  3401               	retlw	1
  2770  01F3  3400               	retlw	0
  2771  01F4  3401               	retlw	1
  2772  01F5  3401               	retlw	1
  2773  01F6  3401               	retlw	1
  2774  01F7  3400               	retlw	0
  2775  01F8  3400               	retlw	0
  2776  01F9  3401               	retlw	1
  2777  01FA  3401               	retlw	1
  2778  01FB  3401               	retlw	1
  2779  01FC  3401               	retlw	1
  2780  01FD  3401               	retlw	1
  2781  01FE  3400               	retlw	0
  2782  01FF  3400               	retlw	0
  2783  0200  3400               	retlw	0
  2784  0201  3401               	retlw	1
  2785  0202  3401               	retlw	1
  2786  0203  3400               	retlw	0
  2787  0204  3401               	retlw	1
  2788  0205  3400               	retlw	0
  2789  0206  3401               	retlw	1
  2790  0207  3401               	retlw	1
  2791  0208  3401               	retlw	1
  2792  0209  3401               	retlw	1
  2793  020A  3400               	retlw	0
  2794  020B  3401               	retlw	1
  2795  020C  3401               	retlw	1
  2796  020D  3400               	retlw	0
  2797  020E  3400               	retlw	0
  2798  020F  3401               	retlw	1
  2799  0210  3401               	retlw	1
  2800  0211  3401               	retlw	1
  2801  0212  3401               	retlw	1
  2802  0213  3401               	retlw	1
  2803  0214  3400               	retlw	0
  2804  0215  3400               	retlw	0
  2805  0216  3400               	retlw	0
  2806  0217  3401               	retlw	1
  2807  0218  3401               	retlw	1
  2808  0219  3401               	retlw	1
  2809  021A  3401               	retlw	1
  2810  021B  3400               	retlw	0
  2811  021C  3401               	retlw	1
  2812  021D  3401               	retlw	1
  2813  021E  3401               	retlw	1
  2814  021F  3401               	retlw	1
  2815  0220  3400               	retlw	0
  2816  0221  3400               	retlw	0
  2817  0222  3401               	retlw	1
  2818  0223  3401               	retlw	1
  2819  0224  3400               	retlw	0
  2820  0225  3401               	retlw	1
  2821  0226  3401               	retlw	1
  2822  0227  3401               	retlw	1
  2823  0228  3400               	retlw	0
  2824  0229  3400               	retlw	0
  2825  022A  3400               	retlw	0
  2826  022B  3400               	retlw	0
  2827  022C  3401               	retlw	1
  2828  022D  3401               	retlw	1
  2829  022E  3400               	retlw	0
  2830  022F  3400               	retlw	0
  2831  0230  3401               	retlw	1
  2832  0231  3401               	retlw	1
  2833  0232  3401               	retlw	1
  2834  0233  3401               	retlw	1
  2835  0234  3400               	retlw	0
  2836  0235  3400               	retlw	0
  2837  0236  3401               	retlw	1
  2838  0237  3400               	retlw	0
  2839  0238  3401               	retlw	1
  2840  0239  3400               	retlw	0
  2841  023A  3401               	retlw	1
  2842  023B  3401               	retlw	1
  2843  023C  3401               	retlw	1
  2844  023D  3400               	retlw	0
  2845  023E  3400               	retlw	0
  2846  023F  3400               	retlw	0
  2847  0240  3401               	retlw	1
  2848  0241  3401               	retlw	1
  2849  0242  3401               	retlw	1
  2850  0243  3400               	retlw	0
  2851  0244  3401               	retlw	1
  2852  0245  3401               	retlw	1
  2853  0246  3400               	retlw	0
  2854  0247  3401               	retlw	1
  2855  0248  3400               	retlw	0
  2856  0249  3401               	retlw	1
  2857  024A  3400               	retlw	0
  2858  024B  3400               	retlw	0
  2859  024C  3400               	retlw	0
  2860  024D  3401               	retlw	1
  2861  024E  3400               	retlw	0
  2862  024F  3401               	retlw	1
  2863  0250  3400               	retlw	0
  2864  0251  3401               	retlw	1
  2865  0252  3400               	retlw	0
  2866  0253  3400               	retlw	0
  2867  0254  3401               	retlw	1
  2868  0255  3401               	retlw	1
  2869  0256  3401               	retlw	1
  2870  0257  3400               	retlw	0
  2871  0258  3401               	retlw	1
  2872  0259  3401               	retlw	1
  2873  025A  3401               	retlw	1
  2874  025B  3400               	retlw	0
  2875  025C  3400               	retlw	0
  2876  025D  3401               	retlw	1
  2877  025E  3401               	retlw	1
  2878  025F  3401               	retlw	1
  2879  0260  3401               	retlw	1
  2880  0261  3401               	retlw	1
  2881  0262  3401               	retlw	1
  2882  0263  3400               	retlw	0
  2883  0264  3400               	retlw	0
  2884  0265  3401               	retlw	1
  2885  0266  3401               	retlw	1
  2886  0267  3400               	retlw	0
  2887  0268  3400               	retlw	0
  2888  0269  3400               	retlw	0
  2889  026A  3400               	retlw	0
  2890  026B  3401               	retlw	1
  2891  026C  3400               	retlw	0
  2892  026D  3401               	retlw	1
  2893  026E  3401               	retlw	1
  2894  026F  3400               	retlw	0
  2895  0270  3401               	retlw	1
  2896  0271  3401               	retlw	1
  2897  0272  3400               	retlw	0
  2898  0273  3401               	retlw	1
  2899  0274  3401               	retlw	1
  2900  0275  3400               	retlw	0
  2901  0276  3400               	retlw	0
  2902  0277  3400               	retlw	0
  2903  0278  3401               	retlw	1
  2904  0279  3401               	retlw	1
  2905  027A  3401               	retlw	1
  2906  027B  3401               	retlw	1
  2907  027C  3400               	retlw	0
  2908  027D  3400               	retlw	0
  2909  027E  3401               	retlw	1
  2910  027F  3401               	retlw	1
  2911  0280  3401               	retlw	1
  2912  0281  3400               	retlw	0
  2913  0282  3400               	retlw	0
  2914  0283  3400               	retlw	0
  2915  0284  3401               	retlw	1
  2916  0285  3400               	retlw	0
  2917  0286  3401               	retlw	1
  2918  0287  3400               	retlw	0
  2919  0288  3401               	retlw	1
  2920  0289  3400               	retlw	0
  2921  028A  3400               	retlw	0
  2922  028B  3401               	retlw	1
  2923  028C  3401               	retlw	1
  2924  028D  3401               	retlw	1
  2925  028E  3401               	retlw	1
  2926  028F  3401               	retlw	1
  2927  0290  3401               	retlw	1
  2928  0291  3401               	retlw	1
  2929  0292  3400               	retlw	0
  2930  0293  3400               	retlw	0
  2931  0294  3401               	retlw	1
  2932  0295  3400               	retlw	0
  2933  0296  3400               	retlw	0
  2934  0297  3401               	retlw	1
  2935  0298  3400               	retlw	0
  2936  0299  3401               	retlw	1
  2937  029A  3401               	retlw	1
  2938  029B  3401               	retlw	1
  2939  029C  3400               	retlw	0
  2940  029D  3401               	retlw	1
  2941  029E  3401               	retlw	1
  2942  029F  3401               	retlw	1
  2943  02A0  3401               	retlw	1
  2944  02A1  3400               	retlw	0
  2945  02A2  3401               	retlw	1
  2946  02A3  3401               	retlw	1
  2947  02A4  3400               	retlw	0
  2948  02A5  3401               	retlw	1
  2949  02A6  3400               	retlw	0
  2950  02A7  3400               	retlw	0
  2951  02A8  3400               	retlw	0
  2952  02A9  3400               	retlw	0
  2953  02AA  3400               	retlw	0
  2954  02AB  3400               	retlw	0
  2955  02AC  3400               	retlw	0
  2956  0016                     _LATAbits	set	22
  2957  000C                     _PORTAbits	set	12
  2958  0017                     _LATBbits	set	23
  2959  0018                     _LATCbits	set	24
  2960  0013                     _TRISC	set	19
  2961  0012                     _TRISB	set	18
  2962  0011                     _TRISA	set	17
  2963  0018                     _LATC	set	24
  2964  0017                     _LATB	set	23
  2965  0016                     _LATA	set	22
  2966  0094                     _ADCON1bits	set	148
  2967  008E                     _ADPREVL	set	142
  2968  008F                     _ADPREVH	set	143
  2969  0097                     _ADSTATbits	set	151
  2970  0090                     _ADACCL	set	144
  2971  0091                     _ADACCH	set	145
  2972  0095                     _ADCON2bits	set	149
  2973  009C                     _ADPRE	set	156
  2974  0096                     _ADCON3bits	set	150
  2975  008C                     _ADRESL	set	140
  2976  008D                     _ADRESH	set	141
  2977  0093                     _ADCON0bits	set	147
  2978  009D                     _ADACQ	set	157
  2979  0093                     _ADCON0	set	147
  2980  0098                     _ADCLK	set	152
  2981  0099                     _ADACT	set	153
  2982  009A                     _ADREF	set	154
  2983  0097                     _ADSTAT	set	151
  2984  0096                     _ADCON3	set	150
  2985  0095                     _ADCON2	set	149
  2986  0094                     _ADCON1	set	148
  2987  009B                     _ADCAP	set	155
  2988  009E                     _ADPCH	set	158
  2989  0116                     _ADERRL	set	278
  2990  0117                     _ADERRH	set	279
  2991  0114                     _ADFLTRL	set	276
  2992  0115                     _ADFLTRH	set	277
  2993  010C                     _ADCNT	set	268
  2994  010D                     _ADRPT	set	269
  2995  0113                     _ADSTPTH	set	275
  2996  0112                     _ADSTPTL	set	274
  2997  0111                     _ADUTHH	set	273
  2998  0110                     _ADUTHL	set	272
  2999  010F                     _ADLTHH	set	271
  3000  010E                     _ADLTHL	set	270
  3001  079B                     _PMD5	set	1947
  3002  079A                     _PMD4	set	1946
  3003  0799                     _PMD3	set	1945
  3004  0798                     _PMD2	set	1944
  3005  0797                     _PMD1	set	1943
  3006  0796                     _PMD0	set	1942
  3007  0892                     _OSCTUNE	set	2194
  3008  0893                     _OSCFRQ	set	2195
  3009  0891                     _OSCEN	set	2193
  3010  088F                     _OSCCON3	set	2191
  3011  088D                     _OSCCON1	set	2189
  3012  0F51                     _SLRCONC	set	3921
  3013  0F46                     _SLRCONB	set	3910
  3014  0F3B                     _SLRCONA	set	3899
  3015  0F50                     _ODCONC	set	3920
  3016  0F45                     _ODCONB	set	3909
  3017  0F3A                     _ODCONA	set	3898
  3018  0F4F                     _WPUC	set	3919
  3019  0F39                     _WPUA	set	3897
  3020  0F44                     _WPUB	set	3908
  3021  0F65                     _WPUE	set	3941
  3022  0F38                     _ANSELA	set	3896
  3023  0F43                     _ANSELB	set	3907
  3024  0F4E                     _ANSELC	set	3918
  3025                           
  3026                           ; #config settings
  3027  0000                     
  3028                           	psect	cinit
  3029  07E2                     start_initialization:	
  3030  07E2                     __initialization:		;BIGRAM
  3031                           
  3032                           ; Initialize objects allocated to BIGRAM
  3033  07E2  30AA               	movlw	low __pidataBIGRAM
  3034  07E3  0084               	movwf	4
  3035  07E4  3081               	movlw	(high __pidataBIGRAM)| (0+128)
  3036  07E5  0085               	movwf	5
  3037  07E6  30ED               	movlw	low (0+8941)
  3038  07E7  0086               	movwf	6
  3039  07E8  3022               	movlw	high (0+8941)
  3040  07E9  0087               	movwf	7
  3041  07EA  3001               	movlw	1
  3042  07EB  00FF               	movwf	btemp+1
  3043  07EC  3003               	movlw	3
  3044  07ED  3180  2050  3187   	fcall	init_ram
  3045                           
  3046                           ; Initialize objects allocated to BANK0
  3047  07F0  3082               	movlw	low __pidataBANK0
  3048  07F1  0084               	movwf	4
  3049  07F2  3080               	movlw	(high __pidataBANK0)| (0+128)
  3050  07F3  0085               	movwf	5
  3051  07F4  3047               	movlw	low __pdataBANK0
  3052  07F5  0086               	movwf	6
  3053  07F6  3000               	movlw	high __pdataBANK0
  3054  07F7  0087               	movwf	7
  3055  07F8  3000               	movlw	0
  3056  07F9  00FF               	movwf	btemp+1
  3057  07FA  3018               	movlw	24
  3058  07FB  3180  2050         	fcall	init_ram
  3059  07FD                     end_of_initialization:	
  3060                           ;End of C runtime variable initialization code
  3061                           
  3062  07FD                     __end_of__initialization:	
  3063  07FD  0020               	movlb	0
  3064  07FE  3182  2AAD         	ljmp	_main	;jump to C main() function
  3065                           
  3066                           	psect	dataBANK0
  3067  0047                     __pdataBANK0:	
  3068  0047                     _new:	
  3069  0047                     	ds	4
  3070  004B                     _lock__:	
  3071  004B                     	ds	4
  3072  004F                     _deny:	
  3073  004F                     	ds	4
  3074  0053                     _open:	
  3075  0053                     	ds	4
  3076  0057                     _entr:	
  3077  0057                     	ds	4
  3078  005B                     _set:	
  3079  005B                     	ds	4
  3080                           
  3081                           	psect	inittext
  3082  0050                     init_ram:	
  3083  0050  00FE               	movwf	126
  3084  0051                     initloop:	
  3085  0051  0012               	moviw fsr0++
  3086  0052  001E               	movwi fsr1++
  3087  0053  3001               	movlw	1
  3088  0054  02FE               	subwf	126,f
  3089  0055  3000               	movlw	0
  3090  0056  3BFF               	subwfb	127,f
  3091  0057  087F               	movf	127,w
  3092  0058  047E               	iorwf	126,w
  3093  0059  1903               	btfsc	3,2
  3094  005A  3400               	retlw	0
  3095  005B  2851               	goto	initloop
  3096                           
  3097                           	psect	cstackCOMMON
  3098  0070                     __pcstackCOMMON:	
  3099  0070                     ?_PMD_Initialize:	
  3100  0070                     ??_PMD_Initialize:	
  3101                           ; 1 bytes @ 0x0
  3102                           
  3103  0070                     ?_PIN_MANAGER_Initialize:	
  3104                           ; 1 bytes @ 0x0
  3105                           
  3106  0070                     ??_PIN_MANAGER_Initialize:	
  3107                           ; 1 bytes @ 0x0
  3108                           
  3109  0070                     ?_OSCILLATOR_Initialize:	
  3110                           ; 1 bytes @ 0x0
  3111                           
  3112  0070                     ??_OSCILLATOR_Initialize:	
  3113                           ; 1 bytes @ 0x0
  3114                           
  3115  0070                     ?_ADCC_Initialize:	
  3116                           ; 1 bytes @ 0x0
  3117                           
  3118  0070                     ??_ADCC_Initialize:	
  3119                           ; 1 bytes @ 0x0
  3120                           
  3121  0070                     ?_SYSTEM_Initialize:	
  3122                           ; 1 bytes @ 0x0
  3123                           
  3124  0070                     ??_SYSTEM_Initialize:	
  3125                           ; 1 bytes @ 0x0
  3126                           
  3127  0070                     ?_digitShow:	
  3128                           ; 1 bytes @ 0x0
  3129                           
  3130  0070                     ?_main:	
  3131                           ; 1 bytes @ 0x0
  3132                           
  3133  0070                     ?_ADCC_GetSingleConversion:	
  3134                           ; 1 bytes @ 0x0
  3135                           
  3136  0070                     ?___wmul:	
  3137                           ; 2 bytes @ 0x0
  3138                           
  3139  0070                     ___wmul@multiplier:	
  3140                           ; 2 bytes @ 0x0
  3141                           
  3142                           
  3143                           ; 2 bytes @ 0x0
  3144  0070                     	ds	2
  3145  0072                     ___wmul@multiplicand:	
  3146                           
  3147                           ; 2 bytes @ 0x2
  3148  0072                     	ds	1
  3149  0073                     ??_ADCC_GetSingleConversion:	
  3150  0073                     ADCC_GetSingleConversion@channel:	
  3151                           ; 1 bytes @ 0x3
  3152                           
  3153                           
  3154                           ; 1 bytes @ 0x3
  3155  0073                     	ds	1
  3156  0074                     ??___wmul:	
  3157  0074                     ?___lwdiv:	
  3158                           ; 1 bytes @ 0x4
  3159                           
  3160  0074                     ?___lwmod:	
  3161                           ; 2 bytes @ 0x4
  3162                           
  3163  0074                     ___wmul@product:	
  3164                           ; 2 bytes @ 0x4
  3165                           
  3166  0074                     ___lwdiv@divisor:	
  3167                           ; 2 bytes @ 0x4
  3168                           
  3169  0074                     ___lwmod@divisor:	
  3170                           ; 2 bytes @ 0x4
  3171                           
  3172                           
  3173                           ; 2 bytes @ 0x4
  3174  0074                     	ds	2
  3175  0076                     ??_digitShow:	
  3176  0076                     ___lwdiv@dividend:	
  3177                           ; 1 bytes @ 0x6
  3178                           
  3179  0076                     ___lwmod@dividend:	
  3180                           ; 2 bytes @ 0x6
  3181                           
  3182                           
  3183                           ; 2 bytes @ 0x6
  3184  0076                     	ds	2
  3185  0078                     ??___lwdiv:	
  3186  0078                     ??___lwmod:	
  3187                           ; 1 bytes @ 0x8
  3188                           
  3189                           
  3190                           ; 1 bytes @ 0x8
  3191  0078                     	ds	1
  3192  0079                     ___lwmod@counter:	
  3193  0079                     ___lwdiv@quotient:	
  3194                           ; 1 bytes @ 0x9
  3195                           
  3196                           
  3197                           ; 2 bytes @ 0x9
  3198  0079                     	ds	1
  3199  007A                     digitShow@value:	
  3200                           
  3201                           ; 1 bytes @ 0xA
  3202  007A                     	ds	1
  3203  007B                     ___lwdiv@counter:	
  3204  007B                     digitShow@p:	
  3205                           ; 1 bytes @ 0xB
  3206                           
  3207                           
  3208                           ; 2 bytes @ 0xB
  3209  007B                     	ds	2
  3210                           
  3211                           	psect	cstackBANK0
  3212  0020                     __pcstackBANK0:	
  3213  0020                     ??_main:	
  3214                           
  3215                           ; 1 bytes @ 0x0
  3216  0020                     	ds	2
  3217  0022                     main@zero:	
  3218                           
  3219                           ; 1 bytes @ 0x2
  3220  0022                     	ds	1
  3221  0023                     main@new_display:	
  3222                           
  3223                           ; 2 bytes @ 0x3
  3224  0023                     	ds	2
  3225  0025                     main@lock_display:	
  3226                           
  3227                           ; 2 bytes @ 0x5
  3228  0025                     	ds	2
  3229  0027                     main@digit_tmp:	
  3230                           
  3231                           ; 8 bytes @ 0x7
  3232  0027                     	ds	8
  3233  002F                     main@entr_btn:	
  3234                           
  3235                           ; 2 bytes @ 0xF
  3236  002F                     	ds	2
  3237  0031                     main@open_btn:	
  3238                           
  3239                           ; 2 bytes @ 0x11
  3240  0031                     	ds	2
  3241  0033                     main@deny_btn:	
  3242                           
  3243                           ; 2 bytes @ 0x13
  3244  0033                     	ds	2
  3245  0035                     main@digit__:	
  3246                           
  3247                           ; 1 bytes @ 0x15
  3248  0035                     	ds	1
  3249  0036                     main@last__:	
  3250                           
  3251                           ; 1 bytes @ 0x16
  3252  0036                     	ds	1
  3253  0037                     main@set_btn:	
  3254                           
  3255                           ; 2 bytes @ 0x17
  3256  0037                     	ds	2
  3257  0039                     main@lock:	
  3258                           
  3259                           ; 2 bytes @ 0x19
  3260  0039                     	ds	2
  3261  003B                     main@digit:	
  3262                           
  3263                           ; 8 bytes @ 0x1B
  3264  003B                     	ds	8
  3265  0043                     main@btn_count:	
  3266                           
  3267                           ; 2 bytes @ 0x23
  3268  0043                     	ds	2
  3269  0045                     main@prgm_count:	
  3270                           
  3271                           ; 2 bytes @ 0x25
  3272  0045                     	ds	2
  3273                           
  3274                           	psect	maintext
  3275  02AD                     __pmaintext:	
  3276 ;;
  3277 ;;Main: autosize = 0, tempsize = 2, incstack = 0, save=0
  3278 ;;
  3279 ;; *************** function _main *****************
  3280 ;; Defined at:
  3281 ;;		line 71 in file "main.c"
  3282 ;; Parameters:    Size  Location     Type
  3283 ;;		None
  3284 ;; Auto vars:     Size  Location     Type
  3285 ;;  digit           8   27[BANK0 ] int [4]
  3286 ;;  digit_tmp       8    7[BANK0 ] int [4]
  3287 ;;  prgm_count      2   37[BANK0 ] int 
  3288 ;;  btn_count       2   35[BANK0 ] int 
  3289 ;;  lock            2   25[BANK0 ] int 
  3290 ;;  set_btn         2   23[BANK0 ] int 
  3291 ;;  deny_btn        2   19[BANK0 ] int 
  3292 ;;  open_btn        2   17[BANK0 ] int 
  3293 ;;  entr_btn        2   15[BANK0 ] int 
  3294 ;;  lock_display    2    5[BANK0 ] int 
  3295 ;;  new_display     2    3[BANK0 ] int 
  3296 ;;  last__          1   22[BANK0 ] unsigned char 
  3297 ;;  digit__         1   21[BANK0 ] unsigned char 
  3298 ;;  zero            1    2[BANK0 ] unsigned char 
  3299 ;; Return value:  Size  Location     Type
  3300 ;;                  1    wreg      void 
  3301 ;; Registers used:
  3302 ;;		wreg, fsr1l, fsr1h, status,2, status,0, pclath, cstack
  3303 ;; Tracked objects:
  3304 ;;		On entry : B1F/0
  3305 ;;		On exit  : 0/0
  3306 ;;		Unchanged: 0/0
  3307 ;; Data sizes:     COMMON   BANK0   BANK1   BANK2   BANK3   BANK4   BANK5   BANK6   BANK7   BANK8   BANK9  BANK10  BANK1
      +1  BANK12
  3308 ;;      Params:         0       0       0       0       0       0       0       0       0       0       0       0       
      +0       0
  3309 ;;      Locals:         0      37       0       0       0       0       0       0       0       0       0       0       
      +0       0
  3310 ;;      Temps:          0       2       0       0       0       0       0       0       0       0       0       0       
      +0       0
  3311 ;;      Totals:         0      39       0       0       0       0       0       0       0       0       0       0       
      +0       0
  3312 ;;Total ram usage:       39 bytes
  3313 ;; Hardware stack levels required when called:    2
  3314 ;; This function calls:
  3315 ;;		_ADCC_GetSingleConversion
  3316 ;;		_SYSTEM_Initialize
  3317 ;;		___lwdiv
  3318 ;;		___lwmod
  3319 ;;		_digitShow
  3320 ;; This function is called by:
  3321 ;;		Startup code after reset
  3322 ;; This function uses a non-reentrant model
  3323 ;;
  3324                           
  3325                           
  3326                           ;psect for function _main
  3327  02AD                     _main:	
  3328                           
  3329                           ;main.c: 73:     uint8_t digit__, last__, zero = 0;
  3330                           
  3331                           ;incstack = 0
  3332                           ; Regs used in _main: [wreg+fsr1l+fsr1h+status,2+status,0+pclath+cstack]
  3333  02AD  0020               	movlb	0	; select bank0
  3334  02AE  01A2               	clrf	main@zero
  3335                           
  3336                           ;main.c: 75:     SYSTEM_Initialize();
  3337  02AF  3180  2044  3182   	fcall	_SYSTEM_Initialize
  3338                           
  3339                           ;main.c: 78:     int btn_count = 0, prgm_count = 0;
  3340  02B2  0020               	movlb	0	; select bank0
  3341  02B3  01C3               	clrf	main@btn_count
  3342  02B4  01C4               	clrf	main@btn_count+1
  3343  02B5  01C5               	clrf	main@prgm_count
  3344  02B6  01C6               	clrf	main@prgm_count+1
  3345                           
  3346                           ;main.c: 79:     int set_btn = 1, entr_btn = 1, open_btn = 1, deny_btn = 1, lock = 1, ne
      +                          w_display = 0, lock_display = 0;
  3347  02B7  3001               	movlw	1
  3348  02B8  00B7               	movwf	main@set_btn
  3349  02B9  3000               	movlw	0
  3350  02BA  00B8               	movwf	main@set_btn+1
  3351  02BB  3001               	movlw	1
  3352  02BC  00AF               	movwf	main@entr_btn
  3353  02BD  3000               	movlw	0
  3354  02BE  00B0               	movwf	main@entr_btn+1
  3355  02BF  3001               	movlw	1
  3356  02C0  00B1               	movwf	main@open_btn
  3357  02C1  3000               	movlw	0
  3358  02C2  00B2               	movwf	main@open_btn+1
  3359  02C3  3001               	movlw	1
  3360  02C4  00B3               	movwf	main@deny_btn
  3361  02C5  3000               	movlw	0
  3362  02C6  00B4               	movwf	main@deny_btn+1
  3363  02C7  3001               	movlw	1
  3364  02C8  00B9               	movwf	main@lock
  3365  02C9  3000               	movlw	0
  3366  02CA  00BA               	movwf	main@lock+1
  3367  02CB  01A3               	clrf	main@new_display
  3368  02CC  01A4               	clrf	main@new_display+1
  3369  02CD  01A5               	clrf	main@lock_display
  3370  02CE  01A6               	clrf	main@lock_display+1
  3371  02CF  1798               	bsf	24,7	;volatile
  3372  02D0  1698               	bsf	24,5	;volatile
  3373  02D1  1618               	bsf	24,4	;volatile
  3374  02D2  1697               	bsf	23,5	;volatile
  3375                           
  3376                           ;main.c: 88:     LATBbits.LATB2 = 0;
  3377  02D3  1117               	bcf	23,2	;volatile
  3378  02D4  2B22               	goto	l2109
  3379  02D5                     l286:	
  3380                           ;main.c: 96:          do { LATCbits.LATC7 = 1; } while(0);
  3381                           
  3382  02D5  1798               	bsf	24,7	;volatile
  3383                           
  3384                           ;main.c: 97:          digitShow(new[3]);
  3385  02D6  084A               	movf	_new+3,w
  3386  02D7  3181  2134  3182   	fcall	_digitShow
  3387                           
  3388                           ;main.c: 98:          _delay((unsigned long)((1)*(1000000/4000.0)));
  3389  02DA  3053               	movlw	83
  3390  02DB                     u1517:	
  3391  02DB  0B89               	decfsz	9,f
  3392  02DC  2ADB               	goto	u1517
  3393  02DD  0000               	nop
  3394  02DE  0020               	movlb	0	; select bank0
  3395  02DF  1297               	bcf	23,5	;volatile
  3396                           
  3397                           ;main.c: 100:          _delay((unsigned long)((5)*(1000000/4000.0)));
  3398  02E0  30FA               	movlw	250
  3399  02E1                     u1527:	
  3400  02E1  3200               	nop2
  3401  02E2  0B89               	decfsz	9,f
  3402  02E3  2AE1               	goto	u1527
  3403  02E4  0020               	movlb	0	; select bank0
  3404  02E5  1697               	bsf	23,5	;volatile
  3405                           
  3406                           ;main.c: 103:          digitShow(new[2]);
  3407  02E6  0849               	movf	_new+2,w
  3408  02E7  3181  2134  3182   	fcall	_digitShow
  3409                           
  3410                           ;main.c: 104:          _delay((unsigned long)((1)*(1000000/4000.0)));
  3411  02EA  3053               	movlw	83
  3412  02EB                     u1537:	
  3413  02EB  0B89               	decfsz	9,f
  3414  02EC  2AEB               	goto	u1537
  3415  02ED  0000               	nop
  3416  02EE  0020               	movlb	0	; select bank0
  3417  02EF  1218               	bcf	24,4	;volatile
  3418                           
  3419                           ;main.c: 106:          _delay((unsigned long)((5)*(1000000/4000.0)));
  3420  02F0  30FA               	movlw	250
  3421  02F1                     u1547:	
  3422  02F1  3200               	nop2
  3423  02F2  0B89               	decfsz	9,f
  3424  02F3  2AF1               	goto	u1547
  3425  02F4  0020               	movlb	0	; select bank0
  3426  02F5  1618               	bsf	24,4	;volatile
  3427                           
  3428                           ;main.c: 109:          digitShow(new[1]);
  3429  02F6  0848               	movf	_new+1,w
  3430  02F7  3181  2134  3182   	fcall	_digitShow
  3431                           
  3432                           ;main.c: 110:          _delay((unsigned long)((1)*(1000000/4000.0)));
  3433  02FA  3053               	movlw	83
  3434  02FB                     u1557:	
  3435  02FB  0B89               	decfsz	9,f
  3436  02FC  2AFB               	goto	u1557
  3437  02FD  0000               	nop
  3438  02FE  0020               	movlb	0	; select bank0
  3439  02FF  1298               	bcf	24,5	;volatile
  3440                           
  3441                           ;main.c: 112:          _delay((unsigned long)((5)*(1000000/4000.0)));
  3442  0300  30FA               	movlw	250
  3443  0301                     u1567:	
  3444  0301  3200               	nop2
  3445  0302  0B89               	decfsz	9,f
  3446  0303  2B01               	goto	u1567
  3447  0304  0020               	movlb	0	; select bank0
  3448  0305  1698               	bsf	24,5	;volatile
  3449                           
  3450                           ;main.c: 115:          digitShow(new[0]);
  3451  0306  0847               	movf	_new,w
  3452  0307  3181  2134  3182   	fcall	_digitShow
  3453                           
  3454                           ;main.c: 116:          _delay((unsigned long)((1)*(1000000/4000.0)));
  3455  030A  3053               	movlw	83
  3456  030B                     u1577:	
  3457  030B  0B89               	decfsz	9,f
  3458  030C  2B0B               	goto	u1577
  3459  030D  0000               	nop
  3460  030E  0020               	movlb	0	; select bank0
  3461  030F  1398               	bcf	24,7	;volatile
  3462                           
  3463                           ;main.c: 118:          _delay((unsigned long)((5)*(1000000/4000.0)));
  3464  0310  30FA               	movlw	250
  3465  0311                     u1587:	
  3466  0311  3200               	nop2
  3467  0312  0B89               	decfsz	9,f
  3468  0313  2B11               	goto	u1587
  3469                           
  3470                           ;main.c: 120:          if(PORTAbits.RA5 == 0){
  3471  0314  0020               	movlb	0	; select bank0
  3472  0315  1A8C               	btfsc	12,5	;volatile
  3473  0316  2B22               	goto	l2109
  3474                           
  3475                           ;main.c: 121:              new_display = 0;
  3476  0317  01A3               	clrf	main@new_display
  3477  0318  01A4               	clrf	main@new_display+1
  3478                           
  3479                           ;main.c: 122:              _delay((unsigned long)((350)*(1000000/4000.0)));
  3480  0319  3072               	movlw	114
  3481  031A  0020               	movlb	0	; select bank0
  3482  031B  00A0               	movwf	??_main
  3483  031C  30A1               	movlw	161
  3484  031D                     u1597:	
  3485  031D  0B89               	decfsz	9,f
  3486  031E  2B1D               	goto	u1597
  3487  031F  0BA0               	decfsz	??_main,f
  3488  0320  2B1D               	goto	u1597
  3489  0321  3200               	nop2
  3490  0322                     l2109:	
  3491                           
  3492                           ;main.c: 94:         while(set_btn == 1 && new_display == 1){
  3493  0322  0020               	movlb	0	; select bank0
  3494  0323  0337               	decf	main@set_btn,w
  3495  0324  0438               	iorwf	main@set_btn+1,w
  3496  0325  1D03               	btfss	3,2
  3497  0326  2B2B               	goto	l306
  3498  0327  0323               	decf	main@new_display,w
  3499  0328  0424               	iorwf	main@new_display+1,w
  3500  0329  1903               	btfsc	3,2
  3501  032A  2AD5               	goto	l286
  3502  032B                     l306:	
  3503                           ;main.c: 126:         do { LATCbits.LATC7 = 1; } while(0);
  3504                           
  3505  032B  1798               	bsf	24,7	;volatile
  3506                           
  3507                           ;main.c: 127:         do { LATCbits.LATC5 = 1; } while(0);
  3508  032C  1698               	bsf	24,5	;volatile
  3509                           
  3510                           ;main.c: 128:         do { LATCbits.LATC4 = 1; } while(0);
  3511  032D  1618               	bsf	24,4	;volatile
  3512                           
  3513                           ;main.c: 129:         do { LATBbits.LATB5 = 1; } while(0);
  3514  032E  1697               	bsf	23,5	;volatile
  3515                           
  3516                           ;main.c: 131:         if(PORTAbits.RA5 == 0 && btn_count == 0 && prgm_count == 0 && lock
      +                           == 1){
  3517  032F  1A8C               	btfsc	12,5	;volatile
  3518  0330  2B68               	goto	l2129
  3519  0331  0843               	movf	main@btn_count,w
  3520  0332  0444               	iorwf	main@btn_count+1,w
  3521  0333  1D03               	btfss	3,2
  3522  0334  2B68               	goto	l2129
  3523  0335  0845               	movf	main@prgm_count,w
  3524  0336  0446               	iorwf	main@prgm_count+1,w
  3525  0337  1D03               	btfss	3,2
  3526  0338  2B68               	goto	l2129
  3527  0339  0339               	decf	main@lock,w
  3528  033A  043A               	iorwf	main@lock+1,w
  3529  033B  1D03               	btfss	3,2
  3530  033C  2B68               	goto	l2129
  3531                           
  3532                           ;main.c: 132:             digit[0] = (ADCC_GetSingleConversion(POT)>>4) % 10;
  3533  033D  300A               	movlw	10
  3534  033E  00F4               	movwf	___lwmod@divisor
  3535  033F  3000               	movlw	0
  3536  0340  00F5               	movwf	___lwmod@divisor+1
  3537  0341  3004               	movlw	4
  3538  0342  3180  205C  3182   	fcall	_ADCC_GetSingleConversion
  3539  0345  0E70               	swapf	?_ADCC_GetSingleConversion,w
  3540  0346  390F               	andlw	15
  3541  0347  00F6               	movwf	___lwmod@dividend
  3542  0348  0E71               	swapf	?_ADCC_GetSingleConversion+1,w
  3543  0349  39F0               	andlw	240
  3544  034A  04F6               	iorwf	___lwmod@dividend,f
  3545  034B  0E71               	swapf	?_ADCC_GetSingleConversion+1,w
  3546  034C  390F               	andlw	15
  3547  034D  00F7               	movwf	___lwmod@dividend+1
  3548  034E  3180  20D4  3182   	fcall	___lwmod
  3549  0351  0875               	movf	?___lwmod+1,w
  3550  0352  0020               	movlb	0	; select bank0
  3551  0353  00BC               	movwf	main@digit+1
  3552  0354  0874               	movf	?___lwmod,w
  3553  0355  00BB               	movwf	main@digit
  3554                           
  3555                           ;main.c: 133:             digit_tmp[0] = digit[0];
  3556  0356  083C               	movf	main@digit+1,w
  3557  0357  00A8               	movwf	main@digit_tmp+1
  3558  0358  083B               	movf	main@digit,w
  3559  0359  00A7               	movwf	main@digit_tmp
  3560                           
  3561                           ;main.c: 134:             btn_count++;
  3562  035A  3001               	movlw	1
  3563  035B  07C3               	addwf	main@btn_count,f
  3564  035C  3000               	movlw	0
  3565  035D  3DC4               	addwfc	main@btn_count+1,f
  3566  035E  1416               	bsf	22,0	;volatile
  3567                           
  3568                           ;main.c: 136:             _delay((unsigned long)((300)*(1000000/4000.0)));
  3569  035F  3062               	movlw	98
  3570  0360  0020               	movlb	0	; select bank0
  3571  0361  00A0               	movwf	??_main
  3572  0362  3065               	movlw	101
  3573  0363                     u1607:	
  3574  0363  0B89               	decfsz	9,f
  3575  0364  2B63               	goto	u1607
  3576  0365  0BA0               	decfsz	??_main,f
  3577  0366  2B63               	goto	u1607
  3578  0367  3200               	nop2
  3579  0368                     l2129:	
  3580                           
  3581                           ;main.c: 138:         if(PORTAbits.RA5 == 0 && btn_count == 1 && prgm_count == 0 && lock
      +                           == 1){
  3582  0368  0020               	movlb	0	; select bank0
  3583  0369  1A8C               	btfsc	12,5	;volatile
  3584  036A  2BA2               	goto	l2147
  3585  036B  0343               	decf	main@btn_count,w
  3586  036C  0444               	iorwf	main@btn_count+1,w
  3587  036D  1D03               	btfss	3,2
  3588  036E  2BA2               	goto	l2147
  3589  036F  0845               	movf	main@prgm_count,w
  3590  0370  0446               	iorwf	main@prgm_count+1,w
  3591  0371  1D03               	btfss	3,2
  3592  0372  2BA2               	goto	l2147
  3593  0373  0339               	decf	main@lock,w
  3594  0374  043A               	iorwf	main@lock+1,w
  3595  0375  1D03               	btfss	3,2
  3596  0376  2BA2               	goto	l2147
  3597                           
  3598                           ;main.c: 139:             digit[1] = (ADCC_GetSingleConversion(POT)>>4) % 10;
  3599  0377  300A               	movlw	10
  3600  0378  00F4               	movwf	___lwmod@divisor
  3601  0379  3000               	movlw	0
  3602  037A  00F5               	movwf	___lwmod@divisor+1
  3603  037B  3004               	movlw	4
  3604  037C  3180  205C  3182   	fcall	_ADCC_GetSingleConversion
  3605  037F  0E70               	swapf	?_ADCC_GetSingleConversion,w
  3606  0380  390F               	andlw	15
  3607  0381  00F6               	movwf	___lwmod@dividend
  3608  0382  0E71               	swapf	?_ADCC_GetSingleConversion+1,w
  3609  0383  39F0               	andlw	240
  3610  0384  04F6               	iorwf	___lwmod@dividend,f
  3611  0385  0E71               	swapf	?_ADCC_GetSingleConversion+1,w
  3612  0386  390F               	andlw	15
  3613  0387  00F7               	movwf	___lwmod@dividend+1
  3614  0388  3180  20D4  3182   	fcall	___lwmod
  3615  038B  0875               	movf	?___lwmod+1,w
  3616  038C  0020               	movlb	0	; select bank0
  3617  038D  00BE               	movwf	main@digit+3
  3618  038E  0874               	movf	?___lwmod,w
  3619  038F  00BD               	movwf	main@digit+2
  3620                           
  3621                           ;main.c: 140:             digit_tmp[1] = digit[1];
  3622  0390  083E               	movf	main@digit+3,w
  3623  0391  00AA               	movwf	main@digit_tmp+3
  3624  0392  083D               	movf	main@digit+2,w
  3625  0393  00A9               	movwf	main@digit_tmp+2
  3626                           
  3627                           ;main.c: 141:             btn_count++;
  3628  0394  3001               	movlw	1
  3629  0395  07C3               	addwf	main@btn_count,f
  3630  0396  3000               	movlw	0
  3631  0397  3DC4               	addwfc	main@btn_count+1,f
  3632  0398  1496               	bsf	22,1	;volatile
  3633                           
  3634                           ;main.c: 143:             _delay((unsigned long)((300)*(1000000/4000.0)));
  3635  0399  3062               	movlw	98
  3636  039A  0020               	movlb	0	; select bank0
  3637  039B  00A0               	movwf	??_main
  3638  039C  3065               	movlw	101
  3639  039D                     u1617:	
  3640  039D  0B89               	decfsz	9,f
  3641  039E  2B9D               	goto	u1617
  3642  039F  0BA0               	decfsz	??_main,f
  3643  03A0  2B9D               	goto	u1617
  3644  03A1  3200               	nop2
  3645  03A2                     l2147:	
  3646                           
  3647                           ;main.c: 145:         if(PORTAbits.RA5 == 0 && btn_count == 2 && prgm_count == 0 && lock
      +                           == 1){
  3648  03A2  0020               	movlb	0	; select bank0
  3649  03A3  1A8C               	btfsc	12,5	;volatile
  3650  03A4  2BDD               	goto	l2165
  3651  03A5  3002               	movlw	2
  3652  03A6  0643               	xorwf	main@btn_count,w
  3653  03A7  0444               	iorwf	main@btn_count+1,w
  3654  03A8  1D03               	btfss	3,2
  3655  03A9  2BDD               	goto	l2165
  3656  03AA  0845               	movf	main@prgm_count,w
  3657  03AB  0446               	iorwf	main@prgm_count+1,w
  3658  03AC  1D03               	btfss	3,2
  3659  03AD  2BDD               	goto	l2165
  3660  03AE  0339               	decf	main@lock,w
  3661  03AF  043A               	iorwf	main@lock+1,w
  3662  03B0  1D03               	btfss	3,2
  3663  03B1  2BDD               	goto	l2165
  3664                           
  3665                           ;main.c: 146:             digit[2] = (ADCC_GetSingleConversion(POT)>>4) % 10;
  3666  03B2  300A               	movlw	10
  3667  03B3  00F4               	movwf	___lwmod@divisor
  3668  03B4  3000               	movlw	0
  3669  03B5  00F5               	movwf	___lwmod@divisor+1
  3670  03B6  3004               	movlw	4
  3671  03B7  3180  205C  3182   	fcall	_ADCC_GetSingleConversion
  3672  03BA  0E70               	swapf	?_ADCC_GetSingleConversion,w
  3673  03BB  390F               	andlw	15
  3674  03BC  00F6               	movwf	___lwmod@dividend
  3675  03BD  0E71               	swapf	?_ADCC_GetSingleConversion+1,w
  3676  03BE  39F0               	andlw	240
  3677  03BF  04F6               	iorwf	___lwmod@dividend,f
  3678  03C0  0E71               	swapf	?_ADCC_GetSingleConversion+1,w
  3679  03C1  390F               	andlw	15
  3680  03C2  00F7               	movwf	___lwmod@dividend+1
  3681  03C3  3180  20D4  3182   	fcall	___lwmod
  3682  03C6  0875               	movf	?___lwmod+1,w
  3683  03C7  0020               	movlb	0	; select bank0
  3684  03C8  00C0               	movwf	main@digit+5
  3685  03C9  0874               	movf	?___lwmod,w
  3686  03CA  00BF               	movwf	main@digit+4
  3687                           
  3688                           ;main.c: 147:             digit_tmp[2] = digit[2];
  3689  03CB  0840               	movf	main@digit+5,w
  3690  03CC  00AC               	movwf	main@digit_tmp+5
  3691  03CD  083F               	movf	main@digit+4,w
  3692  03CE  00AB               	movwf	main@digit_tmp+4
  3693                           
  3694                           ;main.c: 148:             btn_count++;
  3695  03CF  3001               	movlw	1
  3696  03D0  07C3               	addwf	main@btn_count,f
  3697  03D1  3000               	movlw	0
  3698  03D2  3DC4               	addwfc	main@btn_count+1,f
  3699  03D3  1516               	bsf	22,2	;volatile
  3700                           
  3701                           ;main.c: 150:             _delay((unsigned long)((300)*(1000000/4000.0)));
  3702  03D4  3062               	movlw	98
  3703  03D5  0020               	movlb	0	; select bank0
  3704  03D6  00A0               	movwf	??_main
  3705  03D7  3065               	movlw	101
  3706  03D8                     u1627:	
  3707  03D8  0B89               	decfsz	9,f
  3708  03D9  2BD8               	goto	u1627
  3709  03DA  0BA0               	decfsz	??_main,f
  3710  03DB  2BD8               	goto	u1627
  3711  03DC  3200               	nop2
  3712  03DD                     l2165:	
  3713                           
  3714                           ;main.c: 152:         if(PORTAbits.RA5 == 0 && btn_count == 3 && prgm_count == 0 && lock
      +                           == 1){
  3715  03DD  0020               	movlb	0	; select bank0
  3716  03DE  1A8C               	btfsc	12,5	;volatile
  3717  03DF  2C66               	goto	l2221
  3718  03E0  3003               	movlw	3
  3719  03E1  0643               	xorwf	main@btn_count,w
  3720  03E2  0444               	iorwf	main@btn_count+1,w
  3721  03E3  1D03               	btfss	3,2
  3722  03E4  2C66               	goto	l2221
  3723  03E5  0845               	movf	main@prgm_count,w
  3724  03E6  0446               	iorwf	main@prgm_count+1,w
  3725  03E7  1D03               	btfss	3,2
  3726  03E8  2C66               	goto	l2221
  3727  03E9  0339               	decf	main@lock,w
  3728  03EA  043A               	iorwf	main@lock+1,w
  3729  03EB  1D03               	btfss	3,2
  3730  03EC  2C66               	goto	l2221
  3731                           
  3732                           ;main.c: 153:             digit[3] = (ADCC_GetSingleConversion(POT)>>4) % 10;
  3733  03ED  300A               	movlw	10
  3734  03EE  00F4               	movwf	___lwmod@divisor
  3735  03EF  3000               	movlw	0
  3736  03F0  00F5               	movwf	___lwmod@divisor+1
  3737  03F1  3004               	movlw	4
  3738  03F2  3180  205C  3182   	fcall	_ADCC_GetSingleConversion
  3739  03F5  0E70               	swapf	?_ADCC_GetSingleConversion,w
  3740  03F6  390F               	andlw	15
  3741  03F7  00F6               	movwf	___lwmod@dividend
  3742  03F8  0E71               	swapf	?_ADCC_GetSingleConversion+1,w
  3743  03F9  39F0               	andlw	240
  3744  03FA  04F6               	iorwf	___lwmod@dividend,f
  3745  03FB  0E71               	swapf	?_ADCC_GetSingleConversion+1,w
  3746  03FC  390F               	andlw	15
  3747  03FD  00F7               	movwf	___lwmod@dividend+1
  3748  03FE  3180  20D4  3182   	fcall	___lwmod
  3749  0401  0875               	movf	?___lwmod+1,w
  3750  0402  0020               	movlb	0	; select bank0
  3751  0403  00C2               	movwf	main@digit+7
  3752  0404  0874               	movf	?___lwmod,w
  3753  0405  00C1               	movwf	main@digit+6
  3754                           
  3755                           ;main.c: 154:             digit_tmp[3] = digit[3];
  3756  0406  0842               	movf	main@digit+7,w
  3757  0407  00AE               	movwf	main@digit_tmp+7
  3758  0408  0841               	movf	main@digit+6,w
  3759  0409  00AD               	movwf	main@digit_tmp+6
  3760                           
  3761                           ;main.c: 155:             btn_count++;
  3762  040A  3001               	movlw	1
  3763  040B  07C3               	addwf	main@btn_count,f
  3764  040C  3000               	movlw	0
  3765  040D  3DC4               	addwfc	main@btn_count+1,f
  3766  040E  1596               	bsf	22,3	;volatile
  3767                           
  3768                           ;main.c: 157:             _delay((unsigned long)((50)*(1000000/4000.0)));
  3769  040F  3011               	movlw	17
  3770  0410  0020               	movlb	0	; select bank0
  3771  0411  00A0               	movwf	??_main
  3772  0412  303A               	movlw	58
  3773  0413                     u1637:	
  3774  0413  0B89               	decfsz	9,f
  3775  0414  2C13               	goto	u1637
  3776  0415  0BA0               	decfsz	??_main,f
  3777  0416  2C13               	goto	u1637
  3778  0417  0000               	nop
  3779  0418  2C66               	goto	l2221
  3780  0419                     l328:	
  3781                           ;main.c: 163:          do { LATCbits.LATC7 = 1; } while(0);
  3782                           
  3783  0419  1798               	bsf	24,7	;volatile
  3784                           
  3785                           ;main.c: 164:          digitShow(set[3]);
  3786  041A  085E               	movf	_set+3,w
  3787  041B  3181  2134  3182   	fcall	_digitShow
  3788                           
  3789                           ;main.c: 165:          _delay((unsigned long)((1)*(1000000/4000.0)));
  3790  041E  3053               	movlw	83
  3791  041F                     u1647:	
  3792  041F  0B89               	decfsz	9,f
  3793  0420  2C1F               	goto	u1647
  3794  0421  0000               	nop
  3795  0422  0020               	movlb	0	; select bank0
  3796  0423  1297               	bcf	23,5	;volatile
  3797                           
  3798                           ;main.c: 167:          _delay((unsigned long)((5)*(1000000/4000.0)));
  3799  0424  30FA               	movlw	250
  3800  0425                     u1657:	
  3801  0425  3200               	nop2
  3802  0426  0B89               	decfsz	9,f
  3803  0427  2C25               	goto	u1657
  3804  0428  0020               	movlb	0	; select bank0
  3805  0429  1697               	bsf	23,5	;volatile
  3806                           
  3807                           ;main.c: 170:          digitShow(set[2]);
  3808  042A  085D               	movf	_set+2,w
  3809  042B  3181  2134  3182   	fcall	_digitShow
  3810                           
  3811                           ;main.c: 171:          _delay((unsigned long)((1)*(1000000/4000.0)));
  3812  042E  3053               	movlw	83
  3813  042F                     u1667:	
  3814  042F  0B89               	decfsz	9,f
  3815  0430  2C2F               	goto	u1667
  3816  0431  0000               	nop
  3817  0432  0020               	movlb	0	; select bank0
  3818  0433  1218               	bcf	24,4	;volatile
  3819                           
  3820                           ;main.c: 173:          _delay((unsigned long)((5)*(1000000/4000.0)));
  3821  0434  30FA               	movlw	250
  3822  0435                     u1677:	
  3823  0435  3200               	nop2
  3824  0436  0B89               	decfsz	9,f
  3825  0437  2C35               	goto	u1677
  3826  0438  0020               	movlb	0	; select bank0
  3827  0439  1618               	bsf	24,4	;volatile
  3828                           
  3829                           ;main.c: 176:          digitShow(set[1]);
  3830  043A  085C               	movf	_set+1,w
  3831  043B  3181  2134  3182   	fcall	_digitShow
  3832                           
  3833                           ;main.c: 177:          _delay((unsigned long)((1)*(1000000/4000.0)));
  3834  043E  3053               	movlw	83
  3835  043F                     u1687:	
  3836  043F  0B89               	decfsz	9,f
  3837  0440  2C3F               	goto	u1687
  3838  0441  0000               	nop
  3839  0442  0020               	movlb	0	; select bank0
  3840  0443  1298               	bcf	24,5	;volatile
  3841                           
  3842                           ;main.c: 179:          _delay((unsigned long)((5)*(1000000/4000.0)));
  3843  0444  30FA               	movlw	250
  3844  0445                     u1697:	
  3845  0445  3200               	nop2
  3846  0446  0B89               	decfsz	9,f
  3847  0447  2C45               	goto	u1697
  3848  0448  0020               	movlb	0	; select bank0
  3849  0449  1698               	bsf	24,5	;volatile
  3850                           
  3851                           ;main.c: 182:          digitShow(set[0]);
  3852  044A  085B               	movf	_set,w
  3853  044B  3181  2134  3182   	fcall	_digitShow
  3854                           
  3855                           ;main.c: 183:          _delay((unsigned long)((1)*(1000000/4000.0)));
  3856  044E  3053               	movlw	83
  3857  044F                     u1707:	
  3858  044F  0B89               	decfsz	9,f
  3859  0450  2C4F               	goto	u1707
  3860  0451  0000               	nop
  3861  0452  0020               	movlb	0	; select bank0
  3862  0453  1398               	bcf	24,7	;volatile
  3863                           
  3864                           ;main.c: 185:          _delay((unsigned long)((5)*(1000000/4000.0)));
  3865  0454  30FA               	movlw	250
  3866  0455                     u1717:	
  3867  0455  3200               	nop2
  3868  0456  0B89               	decfsz	9,f
  3869  0457  2C55               	goto	u1717
  3870                           
  3871                           ;main.c: 187:          if(PORTAbits.RA5 == 0){
  3872  0458  0020               	movlb	0	; select bank0
  3873  0459  1A8C               	btfsc	12,5	;volatile
  3874  045A  2C66               	goto	l2221
  3875                           
  3876                           ;main.c: 188:              set_btn = 0;
  3877  045B  01B7               	clrf	main@set_btn
  3878  045C  01B8               	clrf	main@set_btn+1
  3879                           
  3880                           ;main.c: 189:              _delay((unsigned long)((350)*(1000000/4000.0)));
  3881  045D  3072               	movlw	114
  3882  045E  0020               	movlb	0	; select bank0
  3883  045F  00A0               	movwf	??_main
  3884  0460  30A1               	movlw	161
  3885  0461                     u1727:	
  3886  0461  0B89               	decfsz	9,f
  3887  0462  2C61               	goto	u1727
  3888  0463  0BA0               	decfsz	??_main,f
  3889  0464  2C61               	goto	u1727
  3890  0465  3200               	nop2
  3891  0466                     l2221:	
  3892                           
  3893                           ;main.c: 161:         while(set_btn == 1 && prgm_count == 1){
  3894  0466  0020               	movlb	0	; select bank0
  3895  0467  0337               	decf	main@set_btn,w
  3896  0468  0438               	iorwf	main@set_btn+1,w
  3897  0469  1D03               	btfss	3,2
  3898  046A  2C6F               	goto	l348
  3899  046B  0345               	decf	main@prgm_count,w
  3900  046C  0446               	iorwf	main@prgm_count+1,w
  3901  046D  1903               	btfsc	3,2
  3902  046E  2C19               	goto	l328
  3903  046F                     l348:	
  3904                           ;main.c: 193:         do { LATCbits.LATC7 = 1; } while(0);
  3905                           
  3906  046F  1798               	bsf	24,7	;volatile
  3907                           
  3908                           ;main.c: 194:         do { LATCbits.LATC5 = 1; } while(0);
  3909  0470  1698               	bsf	24,5	;volatile
  3910                           
  3911                           ;main.c: 195:         do { LATCbits.LATC4 = 1; } while(0);
  3912  0471  1618               	bsf	24,4	;volatile
  3913                           
  3914                           ;main.c: 196:         do { LATBbits.LATB5 = 1; } while(0);
  3915  0472  1697               	bsf	23,5	;volatile
  3916                           
  3917                           ;main.c: 199:         if(PORTAbits.RA5 == 0 && btn_count == 0 && prgm_count == 1){
  3918  0473  1A8C               	btfsc	12,5	;volatile
  3919  0474  2CA4               	goto	l2237
  3920  0475  0843               	movf	main@btn_count,w
  3921  0476  0444               	iorwf	main@btn_count+1,w
  3922  0477  1D03               	btfss	3,2
  3923  0478  2CA4               	goto	l2237
  3924  0479  0345               	decf	main@prgm_count,w
  3925  047A  0446               	iorwf	main@prgm_count+1,w
  3926  047B  1D03               	btfss	3,2
  3927  047C  2CA4               	goto	l2237
  3928                           
  3929                           ;main.c: 200:             digit[0] = (ADCC_GetSingleConversion(POT)>>4) % 10;
  3930  047D  300A               	movlw	10
  3931  047E  00F4               	movwf	___lwmod@divisor
  3932  047F  3000               	movlw	0
  3933  0480  00F5               	movwf	___lwmod@divisor+1
  3934  0481  3004               	movlw	4
  3935  0482  3180  205C  3182   	fcall	_ADCC_GetSingleConversion
  3936  0485  0E70               	swapf	?_ADCC_GetSingleConversion,w
  3937  0486  390F               	andlw	15
  3938  0487  00F6               	movwf	___lwmod@dividend
  3939  0488  0E71               	swapf	?_ADCC_GetSingleConversion+1,w
  3940  0489  39F0               	andlw	240
  3941  048A  04F6               	iorwf	___lwmod@dividend,f
  3942  048B  0E71               	swapf	?_ADCC_GetSingleConversion+1,w
  3943  048C  390F               	andlw	15
  3944  048D  00F7               	movwf	___lwmod@dividend+1
  3945  048E  3180  20D4  3182   	fcall	___lwmod
  3946  0491  0875               	movf	?___lwmod+1,w
  3947  0492  0020               	movlb	0	; select bank0
  3948  0493  00BC               	movwf	main@digit+1
  3949  0494  0874               	movf	?___lwmod,w
  3950  0495  00BB               	movwf	main@digit
  3951                           
  3952                           ;main.c: 201:             btn_count++;
  3953  0496  3001               	movlw	1
  3954  0497  07C3               	addwf	main@btn_count,f
  3955  0498  3000               	movlw	0
  3956  0499  3DC4               	addwfc	main@btn_count+1,f
  3957  049A  1416               	bsf	22,0	;volatile
  3958                           
  3959                           ;main.c: 203:             _delay((unsigned long)((300)*(1000000/4000.0)));
  3960  049B  3062               	movlw	98
  3961  049C  0020               	movlb	0	; select bank0
  3962  049D  00A0               	movwf	??_main
  3963  049E  3065               	movlw	101
  3964  049F                     u1737:	
  3965  049F  0B89               	decfsz	9,f
  3966  04A0  2C9F               	goto	u1737
  3967  04A1  0BA0               	decfsz	??_main,f
  3968  04A2  2C9F               	goto	u1737
  3969  04A3  3200               	nop2
  3970  04A4                     l2237:	
  3971                           
  3972                           ;main.c: 205:         if(PORTAbits.RA5 == 0 && btn_count == 1 && prgm_count == 1){
  3973  04A4  0020               	movlb	0	; select bank0
  3974  04A5  1A8C               	btfsc	12,5	;volatile
  3975  04A6  2CD6               	goto	l2251
  3976  04A7  0343               	decf	main@btn_count,w
  3977  04A8  0444               	iorwf	main@btn_count+1,w
  3978  04A9  1D03               	btfss	3,2
  3979  04AA  2CD6               	goto	l2251
  3980  04AB  0345               	decf	main@prgm_count,w
  3981  04AC  0446               	iorwf	main@prgm_count+1,w
  3982  04AD  1D03               	btfss	3,2
  3983  04AE  2CD6               	goto	l2251
  3984                           
  3985                           ;main.c: 206:             digit[1] = (ADCC_GetSingleConversion(POT)>>4) % 10;
  3986  04AF  300A               	movlw	10
  3987  04B0  00F4               	movwf	___lwmod@divisor
  3988  04B1  3000               	movlw	0
  3989  04B2  00F5               	movwf	___lwmod@divisor+1
  3990  04B3  3004               	movlw	4
  3991  04B4  3180  205C  3182   	fcall	_ADCC_GetSingleConversion
  3992  04B7  0E70               	swapf	?_ADCC_GetSingleConversion,w
  3993  04B8  390F               	andlw	15
  3994  04B9  00F6               	movwf	___lwmod@dividend
  3995  04BA  0E71               	swapf	?_ADCC_GetSingleConversion+1,w
  3996  04BB  39F0               	andlw	240
  3997  04BC  04F6               	iorwf	___lwmod@dividend,f
  3998  04BD  0E71               	swapf	?_ADCC_GetSingleConversion+1,w
  3999  04BE  390F               	andlw	15
  4000  04BF  00F7               	movwf	___lwmod@dividend+1
  4001  04C0  3180  20D4  3182   	fcall	___lwmod
  4002  04C3  0875               	movf	?___lwmod+1,w
  4003  04C4  0020               	movlb	0	; select bank0
  4004  04C5  00BE               	movwf	main@digit+3
  4005  04C6  0874               	movf	?___lwmod,w
  4006  04C7  00BD               	movwf	main@digit+2
  4007                           
  4008                           ;main.c: 207:             btn_count++;
  4009  04C8  3001               	movlw	1
  4010  04C9  07C3               	addwf	main@btn_count,f
  4011  04CA  3000               	movlw	0
  4012  04CB  3DC4               	addwfc	main@btn_count+1,f
  4013  04CC  1496               	bsf	22,1	;volatile
  4014                           
  4015                           ;main.c: 209:             _delay((unsigned long)((300)*(1000000/4000.0)));
  4016  04CD  3062               	movlw	98
  4017  04CE  0020               	movlb	0	; select bank0
  4018  04CF  00A0               	movwf	??_main
  4019  04D0  3065               	movlw	101
  4020  04D1                     u1747:	
  4021  04D1  0B89               	decfsz	9,f
  4022  04D2  2CD1               	goto	u1747
  4023  04D3  0BA0               	decfsz	??_main,f
  4024  04D4  2CD1               	goto	u1747
  4025  04D5  3200               	nop2
  4026  04D6                     l2251:	
  4027                           
  4028                           ;main.c: 211:         if(PORTAbits.RA5 == 0 && btn_count == 2 && prgm_count == 1){
  4029  04D6  0020               	movlb	0	; select bank0
  4030  04D7  1A8C               	btfsc	12,5	;volatile
  4031  04D8  2D09               	goto	l2265
  4032  04D9  3002               	movlw	2
  4033  04DA  0643               	xorwf	main@btn_count,w
  4034  04DB  0444               	iorwf	main@btn_count+1,w
  4035  04DC  1D03               	btfss	3,2
  4036  04DD  2D09               	goto	l2265
  4037  04DE  0345               	decf	main@prgm_count,w
  4038  04DF  0446               	iorwf	main@prgm_count+1,w
  4039  04E0  1D03               	btfss	3,2
  4040  04E1  2D09               	goto	l2265
  4041                           
  4042                           ;main.c: 212:             digit[2] = (ADCC_GetSingleConversion(POT)>>4) % 10;
  4043  04E2  300A               	movlw	10
  4044  04E3  00F4               	movwf	___lwmod@divisor
  4045  04E4  3000               	movlw	0
  4046  04E5  00F5               	movwf	___lwmod@divisor+1
  4047  04E6  3004               	movlw	4
  4048  04E7  3180  205C  3182   	fcall	_ADCC_GetSingleConversion
  4049  04EA  0E70               	swapf	?_ADCC_GetSingleConversion,w
  4050  04EB  390F               	andlw	15
  4051  04EC  00F6               	movwf	___lwmod@dividend
  4052  04ED  0E71               	swapf	?_ADCC_GetSingleConversion+1,w
  4053  04EE  39F0               	andlw	240
  4054  04EF  04F6               	iorwf	___lwmod@dividend,f
  4055  04F0  0E71               	swapf	?_ADCC_GetSingleConversion+1,w
  4056  04F1  390F               	andlw	15
  4057  04F2  00F7               	movwf	___lwmod@dividend+1
  4058  04F3  3180  20D4  3182   	fcall	___lwmod
  4059  04F6  0875               	movf	?___lwmod+1,w
  4060  04F7  0020               	movlb	0	; select bank0
  4061  04F8  00C0               	movwf	main@digit+5
  4062  04F9  0874               	movf	?___lwmod,w
  4063  04FA  00BF               	movwf	main@digit+4
  4064                           
  4065                           ;main.c: 213:             btn_count++;
  4066  04FB  3001               	movlw	1
  4067  04FC  07C3               	addwf	main@btn_count,f
  4068  04FD  3000               	movlw	0
  4069  04FE  3DC4               	addwfc	main@btn_count+1,f
  4070  04FF  1516               	bsf	22,2	;volatile
  4071                           
  4072                           ;main.c: 215:             _delay((unsigned long)((300)*(1000000/4000.0)));
  4073  0500  3062               	movlw	98
  4074  0501  0020               	movlb	0	; select bank0
  4075  0502  00A0               	movwf	??_main
  4076  0503  3065               	movlw	101
  4077  0504                     u1757:	
  4078  0504  0B89               	decfsz	9,f
  4079  0505  2D04               	goto	u1757
  4080  0506  0BA0               	decfsz	??_main,f
  4081  0507  2D04               	goto	u1757
  4082  0508  3200               	nop2
  4083  0509                     l2265:	
  4084                           
  4085                           ;main.c: 217:         if(PORTAbits.RA5 == 0 && btn_count == 3 && prgm_count == 1){
  4086  0509  0020               	movlb	0	; select bank0
  4087  050A  1A8C               	btfsc	12,5	;volatile
  4088  050B  2D3C               	goto	l2317
  4089  050C  3003               	movlw	3
  4090  050D  0643               	xorwf	main@btn_count,w
  4091  050E  0444               	iorwf	main@btn_count+1,w
  4092  050F  1D03               	btfss	3,2
  4093  0510  2D3C               	goto	l2317
  4094  0511  0345               	decf	main@prgm_count,w
  4095  0512  0446               	iorwf	main@prgm_count+1,w
  4096  0513  1D03               	btfss	3,2
  4097  0514  2D3C               	goto	l2317
  4098                           
  4099                           ;main.c: 218:             digit[3] = (ADCC_GetSingleConversion(POT)>>4) % 10;
  4100  0515  300A               	movlw	10
  4101  0516  00F4               	movwf	___lwmod@divisor
  4102  0517  3000               	movlw	0
  4103  0518  00F5               	movwf	___lwmod@divisor+1
  4104  0519  3004               	movlw	4
  4105  051A  3180  205C  3182   	fcall	_ADCC_GetSingleConversion
  4106  051D  0E70               	swapf	?_ADCC_GetSingleConversion,w
  4107  051E  390F               	andlw	15
  4108  051F  00F6               	movwf	___lwmod@dividend
  4109  0520  0E71               	swapf	?_ADCC_GetSingleConversion+1,w
  4110  0521  39F0               	andlw	240
  4111  0522  04F6               	iorwf	___lwmod@dividend,f
  4112  0523  0E71               	swapf	?_ADCC_GetSingleConversion+1,w
  4113  0524  390F               	andlw	15
  4114  0525  00F7               	movwf	___lwmod@dividend+1
  4115  0526  3180  20D4  3182   	fcall	___lwmod
  4116  0529  0875               	movf	?___lwmod+1,w
  4117  052A  0020               	movlb	0	; select bank0
  4118  052B  00C2               	movwf	main@digit+7
  4119  052C  0874               	movf	?___lwmod,w
  4120  052D  00C1               	movwf	main@digit+6
  4121                           
  4122                           ;main.c: 219:             btn_count++;
  4123  052E  3001               	movlw	1
  4124  052F  07C3               	addwf	main@btn_count,f
  4125  0530  3000               	movlw	0
  4126  0531  3DC4               	addwfc	main@btn_count+1,f
  4127  0532  1596               	bsf	22,3	;volatile
  4128                           
  4129                           ;main.c: 221:             _delay((unsigned long)((50)*(1000000/4000.0)));
  4130  0533  3011               	movlw	17
  4131  0534  0020               	movlb	0	; select bank0
  4132  0535  00A0               	movwf	??_main
  4133  0536  303A               	movlw	58
  4134  0537                     u1767:	
  4135  0537  0B89               	decfsz	9,f
  4136  0538  2D37               	goto	u1767
  4137  0539  0BA0               	decfsz	??_main,f
  4138  053A  2D37               	goto	u1767
  4139  053B  0000               	nop
  4140  053C                     l2317:	
  4141                           
  4142                           ;main.c: 226:         while(lock_display == 1){
  4143  053C  0020               	movlb	0	; select bank0
  4144  053D  0325               	decf	main@lock_display,w
  4145  053E  0426               	iorwf	main@lock_display+1,w
  4146  053F  1D03               	btfss	3,2
  4147  0540  2D8F               	goto	l388
  4148                           
  4149                           ;main.c: 228:          do { LATCbits.LATC7 = 1; } while(0);
  4150  0541  1798               	bsf	24,7	;volatile
  4151                           
  4152                           ;main.c: 229:          digitShow(lock__[3]);
  4153  0542  084E               	movf	_lock__+3,w
  4154  0543  3181  2134  3182   	fcall	_digitShow
  4155                           
  4156                           ;main.c: 230:          _delay((unsigned long)((1)*(1000000/4000.0)));
  4157  0546  3053               	movlw	83
  4158  0547                     u1777:	
  4159  0547  0B89               	decfsz	9,f
  4160  0548  2D47               	goto	u1777
  4161  0549  0000               	nop
  4162  054A  0020               	movlb	0	; select bank0
  4163  054B  1297               	bcf	23,5	;volatile
  4164                           
  4165                           ;main.c: 232:          _delay((unsigned long)((5)*(1000000/4000.0)));
  4166  054C  30FA               	movlw	250
  4167  054D                     u1787:	
  4168  054D  3200               	nop2
  4169  054E  0B89               	decfsz	9,f
  4170  054F  2D4D               	goto	u1787
  4171  0550  0020               	movlb	0	; select bank0
  4172  0551  1697               	bsf	23,5	;volatile
  4173                           
  4174                           ;main.c: 235:          digitShow(lock__[2]);
  4175  0552  084D               	movf	_lock__+2,w
  4176  0553  3181  2134  3182   	fcall	_digitShow
  4177                           
  4178                           ;main.c: 236:          _delay((unsigned long)((1)*(1000000/4000.0)));
  4179  0556  3053               	movlw	83
  4180  0557                     u1797:	
  4181  0557  0B89               	decfsz	9,f
  4182  0558  2D57               	goto	u1797
  4183  0559  0000               	nop
  4184  055A  0020               	movlb	0	; select bank0
  4185  055B  1218               	bcf	24,4	;volatile
  4186                           
  4187                           ;main.c: 238:          _delay((unsigned long)((5)*(1000000/4000.0)));
  4188  055C  30FA               	movlw	250
  4189  055D                     u1807:	
  4190  055D  3200               	nop2
  4191  055E  0B89               	decfsz	9,f
  4192  055F  2D5D               	goto	u1807
  4193  0560  0020               	movlb	0	; select bank0
  4194  0561  1618               	bsf	24,4	;volatile
  4195                           
  4196                           ;main.c: 241:          digitShow(lock__[1]);
  4197  0562  084C               	movf	_lock__+1,w
  4198  0563  3181  2134  3182   	fcall	_digitShow
  4199                           
  4200                           ;main.c: 242:          _delay((unsigned long)((1)*(1000000/4000.0)));
  4201  0566  3053               	movlw	83
  4202  0567                     u1817:	
  4203  0567  0B89               	decfsz	9,f
  4204  0568  2D67               	goto	u1817
  4205  0569  0000               	nop
  4206  056A  0020               	movlb	0	; select bank0
  4207  056B  1298               	bcf	24,5	;volatile
  4208                           
  4209                           ;main.c: 244:          _delay((unsigned long)((5)*(1000000/4000.0)));
  4210  056C  30FA               	movlw	250
  4211  056D                     u1827:	
  4212  056D  3200               	nop2
  4213  056E  0B89               	decfsz	9,f
  4214  056F  2D6D               	goto	u1827
  4215  0570  0020               	movlb	0	; select bank0
  4216  0571  1698               	bsf	24,5	;volatile
  4217                           
  4218                           ;main.c: 247:          digitShow(lock__[0]);
  4219  0572  084B               	movf	_lock__,w
  4220  0573  3181  2134  3182   	fcall	_digitShow
  4221                           
  4222                           ;main.c: 248:          _delay((unsigned long)((1)*(1000000/4000.0)));
  4223  0576  3053               	movlw	83
  4224  0577                     u1837:	
  4225  0577  0B89               	decfsz	9,f
  4226  0578  2D77               	goto	u1837
  4227  0579  0000               	nop
  4228  057A  0020               	movlb	0	; select bank0
  4229  057B  1398               	bcf	24,7	;volatile
  4230                           
  4231                           ;main.c: 250:          _delay((unsigned long)((5)*(1000000/4000.0)));
  4232  057C  30FA               	movlw	250
  4233  057D                     u1847:	
  4234  057D  3200               	nop2
  4235  057E  0B89               	decfsz	9,f
  4236  057F  2D7D               	goto	u1847
  4237                           
  4238                           ;main.c: 252:          if(PORTAbits.RA5 == 0){
  4239  0580  0020               	movlb	0	; select bank0
  4240  0581  1A8C               	btfsc	12,5	;volatile
  4241  0582  2D3C               	goto	l2317
  4242                           
  4243                           ;main.c: 253:              lock_display = 0;
  4244  0583  01A5               	clrf	main@lock_display
  4245  0584  01A6               	clrf	main@lock_display+1
  4246                           
  4247                           ;main.c: 254:              _delay((unsigned long)((350)*(1000000/4000.0)));
  4248  0585  3072               	movlw	114
  4249  0586  0020               	movlb	0	; select bank0
  4250  0587  00A0               	movwf	??_main
  4251  0588  30A1               	movlw	161
  4252  0589                     u1857:	
  4253  0589  0B89               	decfsz	9,f
  4254  058A  2D89               	goto	u1857
  4255  058B  0BA0               	decfsz	??_main,f
  4256  058C  2D89               	goto	u1857
  4257  058D  3200               	nop2
  4258  058E  2D3C               	goto	l2317
  4259  058F                     l388:	
  4260                           ;main.c: 258:         do { LATCbits.LATC7 = 1; } while(0);
  4261                           
  4262  058F  1798               	bsf	24,7	;volatile
  4263                           
  4264                           ;main.c: 259:         do { LATCbits.LATC5 = 1; } while(0);
  4265  0590  1698               	bsf	24,5	;volatile
  4266                           
  4267                           ;main.c: 260:         do { LATCbits.LATC4 = 1; } while(0);
  4268  0591  1618               	bsf	24,4	;volatile
  4269                           
  4270                           ;main.c: 261:         do { LATBbits.LATB5 = 1; } while(0);
  4271  0592  1697               	bsf	23,5	;volatile
  4272  0593  2DD8               	goto	l2355
  4273  0594                     l398:	
  4274                           ;main.c: 266:          do { LATCbits.LATC7 = 1; } while(0);
  4275                           
  4276  0594  1798               	bsf	24,7	;volatile
  4277                           
  4278                           ;main.c: 267:          digitShow(entr[3]);
  4279  0595  085A               	movf	_entr+3,w
  4280  0596  3181  2134  3182   	fcall	_digitShow
  4281                           
  4282                           ;main.c: 268:          _delay((unsigned long)((1)*(1000000/4000.0)));
  4283  0599  3053               	movlw	83
  4284  059A                     u1867:	
  4285  059A  0B89               	decfsz	9,f
  4286  059B  2D9A               	goto	u1867
  4287  059C  0000               	nop
  4288  059D  0020               	movlb	0	; select bank0
  4289  059E  1297               	bcf	23,5	;volatile
  4290                           
  4291                           ;main.c: 270:          _delay((unsigned long)((5)*(1000000/4000.0)));
  4292  059F  30FA               	movlw	250
  4293  05A0                     u1877:	
  4294  05A0  3200               	nop2
  4295  05A1  0B89               	decfsz	9,f
  4296  05A2  2DA0               	goto	u1877
  4297  05A3  0020               	movlb	0	; select bank0
  4298  05A4  1697               	bsf	23,5	;volatile
  4299                           
  4300                           ;main.c: 273:          digitShow(entr[2]);
  4301  05A5  0859               	movf	_entr+2,w
  4302  05A6  3181  2134  3182   	fcall	_digitShow
  4303                           
  4304                           ;main.c: 274:          _delay((unsigned long)((1)*(1000000/4000.0)));
  4305  05A9  3053               	movlw	83
  4306  05AA                     u1887:	
  4307  05AA  0B89               	decfsz	9,f
  4308  05AB  2DAA               	goto	u1887
  4309  05AC  0000               	nop
  4310  05AD  0020               	movlb	0	; select bank0
  4311  05AE  1218               	bcf	24,4	;volatile
  4312                           
  4313                           ;main.c: 276:          _delay((unsigned long)((5)*(1000000/4000.0)));
  4314  05AF  30FA               	movlw	250
  4315  05B0                     u1897:	
  4316  05B0  3200               	nop2
  4317  05B1  0B89               	decfsz	9,f
  4318  05B2  2DB0               	goto	u1897
  4319  05B3  0020               	movlb	0	; select bank0
  4320  05B4  1618               	bsf	24,4	;volatile
  4321                           
  4322                           ;main.c: 279:          digitShow(entr[1]);
  4323  05B5  0858               	movf	_entr+1,w
  4324  05B6  3181  2134  3182   	fcall	_digitShow
  4325                           
  4326                           ;main.c: 280:          _delay((unsigned long)((1)*(1000000/4000.0)));
  4327  05B9  3053               	movlw	83
  4328  05BA                     u1907:	
  4329  05BA  0B89               	decfsz	9,f
  4330  05BB  2DBA               	goto	u1907
  4331  05BC  0000               	nop
  4332  05BD  0020               	movlb	0	; select bank0
  4333  05BE  1298               	bcf	24,5	;volatile
  4334                           
  4335                           ;main.c: 282:          _delay((unsigned long)((5)*(1000000/4000.0)));
  4336  05BF  30FA               	movlw	250
  4337  05C0                     u1917:	
  4338  05C0  3200               	nop2
  4339  05C1  0B89               	decfsz	9,f
  4340  05C2  2DC0               	goto	u1917
  4341  05C3  0020               	movlb	0	; select bank0
  4342  05C4  1698               	bsf	24,5	;volatile
  4343                           
  4344                           ;main.c: 285:          digitShow(entr[0]);
  4345  05C5  0857               	movf	_entr,w
  4346  05C6  3181  2134  3182   	fcall	_digitShow
  4347                           
  4348                           ;main.c: 286:          _delay((unsigned long)((1)*(1000000/4000.0)));
  4349  05C9  3053               	movlw	83
  4350  05CA                     u1927:	
  4351  05CA  0B89               	decfsz	9,f
  4352  05CB  2DCA               	goto	u1927
  4353  05CC  0000               	nop
  4354  05CD  0020               	movlb	0	; select bank0
  4355  05CE  1398               	bcf	24,7	;volatile
  4356                           
  4357                           ;main.c: 288:          _delay((unsigned long)((5)*(1000000/4000.0)));
  4358  05CF  30FA               	movlw	250
  4359  05D0                     u1937:	
  4360  05D0  3200               	nop2
  4361  05D1  0B89               	decfsz	9,f
  4362  05D2  2DD0               	goto	u1937
  4363                           
  4364                           ;main.c: 290:          if(PORTAbits.RA5 == 0){
  4365  05D3  0020               	movlb	0	; select bank0
  4366  05D4  1A8C               	btfsc	12,5	;volatile
  4367  05D5  2DD8               	goto	l2355
  4368                           
  4369                           ;main.c: 291:              entr_btn = 0;
  4370  05D6  01AF               	clrf	main@entr_btn
  4371  05D7  01B0               	clrf	main@entr_btn+1
  4372  05D8                     l2355:	
  4373                           
  4374                           ;main.c: 264:         while(entr_btn == 1 && prgm_count == 2){
  4375  05D8  032F               	decf	main@entr_btn,w
  4376  05D9  0430               	iorwf	main@entr_btn+1,w
  4377  05DA  1D03               	btfss	3,2
  4378  05DB  2DE1               	goto	l418
  4379  05DC  3002               	movlw	2
  4380  05DD  0645               	xorwf	main@prgm_count,w
  4381  05DE  0446               	iorwf	main@prgm_count+1,w
  4382  05DF  1903               	btfsc	3,2
  4383  05E0  2D94               	goto	l398
  4384  05E1                     l418:	
  4385                           ;main.c: 295:         do { LATCbits.LATC7 = 1; } while(0);
  4386                           
  4387  05E1  1798               	bsf	24,7	;volatile
  4388                           
  4389                           ;main.c: 296:         do { LATCbits.LATC5 = 1; } while(0);
  4390  05E2  1698               	bsf	24,5	;volatile
  4391                           
  4392                           ;main.c: 297:         do { LATCbits.LATC4 = 1; } while(0);
  4393  05E3  1618               	bsf	24,4	;volatile
  4394                           
  4395                           ;main.c: 298:         do { LATBbits.LATB5 = 1; } while(0);
  4396  05E4  1697               	bsf	23,5	;volatile
  4397                           
  4398                           ;main.c: 300:         if(PORTAbits.RA5 == 0 && btn_count == 0 && prgm_count == 2){
  4399  05E5  1A8C               	btfsc	12,5	;volatile
  4400  05E6  2F58               	goto	l426
  4401  05E7  0843               	movf	main@btn_count,w
  4402  05E8  0444               	iorwf	main@btn_count+1,w
  4403  05E9  1D03               	btfss	3,2
  4404  05EA  2F58               	goto	l426
  4405  05EB  3002               	movlw	2
  4406  05EC  0645               	xorwf	main@prgm_count,w
  4407  05ED  0446               	iorwf	main@prgm_count+1,w
  4408  05EE  1D03               	btfss	3,2
  4409  05EF  2F58               	goto	l426
  4410                           
  4411                           ;main.c: 301:             if(digit[0] == digit_tmp[0] && digit[1] == digit_tmp[1] && dig
      +                          it[2] == digit_tmp[2] && digit[3] == digit_tmp[3]){
  4412  05F0  0828               	movf	main@digit_tmp+1,w
  4413  05F1  063C               	xorwf	main@digit+1,w
  4414  05F2  1D03               	skipz
  4415  05F3  2DF6               	goto	u1365
  4416  05F4  0827               	movf	main@digit_tmp,w
  4417  05F5  063B               	xorwf	main@digit,w
  4418  05F6                     u1365:	
  4419  05F6  1D03               	skipz
  4420  05F7  2ED6               	goto	l2445
  4421  05F8  082A               	movf	main@digit_tmp+3,w
  4422  05F9  063E               	xorwf	main@digit+3,w
  4423  05FA  1D03               	skipz
  4424  05FB  2DFE               	goto	u1375
  4425  05FC  0829               	movf	main@digit_tmp+2,w
  4426  05FD  063D               	xorwf	main@digit+2,w
  4427  05FE                     u1375:	
  4428  05FE  1D03               	skipz
  4429  05FF  2ED6               	goto	l2445
  4430  0600  082C               	movf	main@digit_tmp+5,w
  4431  0601  0640               	xorwf	main@digit+5,w
  4432  0602  1D03               	skipz
  4433  0603  2E06               	goto	u1385
  4434  0604  082B               	movf	main@digit_tmp+4,w
  4435  0605  063F               	xorwf	main@digit+4,w
  4436  0606                     u1385:	
  4437  0606  1D03               	skipz
  4438  0607  2ED6               	goto	l2445
  4439  0608  082E               	movf	main@digit_tmp+7,w
  4440  0609  0642               	xorwf	main@digit+7,w
  4441  060A  1D03               	skipz
  4442  060B  2E0E               	goto	u1395
  4443  060C  082D               	movf	main@digit_tmp+6,w
  4444  060D  0641               	xorwf	main@digit+6,w
  4445  060E                     u1395:	
  4446  060E  1D03               	skipz
  4447  060F  2ED6               	goto	l2445
  4448                           
  4449                           ;main.c: 302:                 _delay((unsigned long)((200)*(1000000/4000.0)));
  4450  0610  3041               	movlw	65
  4451  0611  0020               	movlb	0	; select bank0
  4452  0612  00A0               	movwf	??_main
  4453  0613  30EE               	movlw	238
  4454  0614                     u1947:	
  4455  0614  0B89               	decfsz	9,f
  4456  0615  2E14               	goto	u1947
  4457  0616  0BA0               	decfsz	??_main,f
  4458  0617  2E14               	goto	u1947
  4459  0618  0000               	nop
  4460  0619                     l2411:	
  4461                           ;main.c: 303:                 while(open_btn == 1){
  4462                           
  4463                           
  4464                           ;main.c: 303:                 while(open_btn == 1){
  4465  0619  0020               	movlb	0	; select bank0
  4466  061A  0331               	decf	main@open_btn,w
  4467  061B  0432               	iorwf	main@open_btn+1,w
  4468  061C  1D03               	btfss	3,2
  4469  061D  2E6C               	goto	l448
  4470                           
  4471                           ;main.c: 305:                     do { LATCbits.LATC7 = 1; } while(0);
  4472  061E  1798               	bsf	24,7	;volatile
  4473                           
  4474                           ;main.c: 306:                     digitShow(open[3]);
  4475  061F  0856               	movf	_open+3,w
  4476  0620  3181  2134  3182   	fcall	_digitShow
  4477                           
  4478                           ;main.c: 307:                     _delay((unsigned long)((1)*(1000000/4000.0)));
  4479  0623  3053               	movlw	83
  4480  0624                     u1957:	
  4481  0624  0B89               	decfsz	9,f
  4482  0625  2E24               	goto	u1957
  4483  0626  0000               	nop
  4484  0627  0020               	movlb	0	; select bank0
  4485  0628  1297               	bcf	23,5	;volatile
  4486                           
  4487                           ;main.c: 309:                     _delay((unsigned long)((5)*(1000000/4000.0)));
  4488  0629  30FA               	movlw	250
  4489  062A                     u1967:	
  4490  062A  3200               	nop2
  4491  062B  0B89               	decfsz	9,f
  4492  062C  2E2A               	goto	u1967
  4493  062D  0020               	movlb	0	; select bank0
  4494  062E  1697               	bsf	23,5	;volatile
  4495                           
  4496                           ;main.c: 312:                     digitShow(open[2]);
  4497  062F  0855               	movf	_open+2,w
  4498  0630  3181  2134  3182   	fcall	_digitShow
  4499                           
  4500                           ;main.c: 313:                     _delay((unsigned long)((1)*(1000000/4000.0)));
  4501  0633  3053               	movlw	83
  4502  0634                     u1977:	
  4503  0634  0B89               	decfsz	9,f
  4504  0635  2E34               	goto	u1977
  4505  0636  0000               	nop
  4506  0637  0020               	movlb	0	; select bank0
  4507  0638  1218               	bcf	24,4	;volatile
  4508                           
  4509                           ;main.c: 315:                     _delay((unsigned long)((5)*(1000000/4000.0)));
  4510  0639  30FA               	movlw	250
  4511  063A                     u1987:	
  4512  063A  3200               	nop2
  4513  063B  0B89               	decfsz	9,f
  4514  063C  2E3A               	goto	u1987
  4515  063D  0020               	movlb	0	; select bank0
  4516  063E  1618               	bsf	24,4	;volatile
  4517                           
  4518                           ;main.c: 318:                     digitShow(open[1]);
  4519  063F  0854               	movf	_open+1,w
  4520  0640  3181  2134  3182   	fcall	_digitShow
  4521                           
  4522                           ;main.c: 319:                     _delay((unsigned long)((1)*(1000000/4000.0)));
  4523  0643  3053               	movlw	83
  4524  0644                     u1997:	
  4525  0644  0B89               	decfsz	9,f
  4526  0645  2E44               	goto	u1997
  4527  0646  0000               	nop
  4528  0647  0020               	movlb	0	; select bank0
  4529  0648  1298               	bcf	24,5	;volatile
  4530                           
  4531                           ;main.c: 321:                     _delay((unsigned long)((5)*(1000000/4000.0)));
  4532  0649  30FA               	movlw	250
  4533  064A                     u2007:	
  4534  064A  3200               	nop2
  4535  064B  0B89               	decfsz	9,f
  4536  064C  2E4A               	goto	u2007
  4537  064D  0020               	movlb	0	; select bank0
  4538  064E  1698               	bsf	24,5	;volatile
  4539                           
  4540                           ;main.c: 324:                     digitShow(open[0]);
  4541  064F  0853               	movf	_open,w
  4542  0650  3181  2134  3182   	fcall	_digitShow
  4543                           
  4544                           ;main.c: 325:                     _delay((unsigned long)((1)*(1000000/4000.0)));
  4545  0653  3053               	movlw	83
  4546  0654                     u2017:	
  4547  0654  0B89               	decfsz	9,f
  4548  0655  2E54               	goto	u2017
  4549  0656  0000               	nop
  4550  0657  0020               	movlb	0	; select bank0
  4551  0658  1398               	bcf	24,7	;volatile
  4552                           
  4553                           ;main.c: 327:                     _delay((unsigned long)((5)*(1000000/4000.0)));
  4554  0659  30FA               	movlw	250
  4555  065A                     u2027:	
  4556  065A  3200               	nop2
  4557  065B  0B89               	decfsz	9,f
  4558  065C  2E5A               	goto	u2027
  4559                           
  4560                           ;main.c: 329:                     if(PORTAbits.RA5 == 0){
  4561  065D  0020               	movlb	0	; select bank0
  4562  065E  1A8C               	btfsc	12,5	;volatile
  4563  065F  2E19               	goto	l2411
  4564                           
  4565                           ;main.c: 330:                         open_btn = 0;
  4566  0660  01B1               	clrf	main@open_btn
  4567  0661  01B2               	clrf	main@open_btn+1
  4568                           
  4569                           ;main.c: 331:                         _delay((unsigned long)((25)*(1000000/4000.0)));
  4570  0662  3009               	movlw	9
  4571  0663  0020               	movlb	0	; select bank0
  4572  0664  00A0               	movwf	??_main
  4573  0665  301C               	movlw	28
  4574  0666                     u2037:	
  4575  0666  0B89               	decfsz	9,f
  4576  0667  2E66               	goto	u2037
  4577  0668  0BA0               	decfsz	??_main,f
  4578  0669  2E66               	goto	u2037
  4579  066A  0000               	nop
  4580  066B  2E19               	goto	l2411
  4581  066C                     l448:	
  4582                           ;main.c: 335:                    do { LATCbits.LATC7 = 1; } while(0);
  4583                           
  4584  066C  1798               	bsf	24,7	;volatile
  4585                           
  4586                           ;main.c: 336:                    do { LATCbits.LATC5 = 1; } while(0);
  4587  066D  1698               	bsf	24,5	;volatile
  4588                           
  4589                           ;main.c: 337:                    do { LATCbits.LATC4 = 1; } while(0);
  4590  066E  1618               	bsf	24,4	;volatile
  4591                           
  4592                           ;main.c: 338:                    do { LATBbits.LATB5 = 1; } while(0);
  4593  066F  1697               	bsf	23,5	;volatile
  4594                           
  4595                           ;main.c: 340:                    if(((ADCC_GetSingleConversion(POT)>>4) % 10) == zero){
  4596  0670  300A               	movlw	10
  4597  0671  00F4               	movwf	___lwmod@divisor
  4598  0672  3000               	movlw	0
  4599  0673  00F5               	movwf	___lwmod@divisor+1
  4600  0674  3004               	movlw	4
  4601  0675  3180  205C  3182   	fcall	_ADCC_GetSingleConversion
  4602  0678  0E70               	swapf	?_ADCC_GetSingleConversion,w
  4603  0679  390F               	andlw	15
  4604  067A  00F6               	movwf	___lwmod@dividend
  4605  067B  0E71               	swapf	?_ADCC_GetSingleConversion+1,w
  4606  067C  39F0               	andlw	240
  4607  067D  04F6               	iorwf	___lwmod@dividend,f
  4608  067E  0E71               	swapf	?_ADCC_GetSingleConversion+1,w
  4609  067F  390F               	andlw	15
  4610  0680  00F7               	movwf	___lwmod@dividend+1
  4611  0681  3180  20D4  3182   	fcall	___lwmod
  4612  0684  0020               	movlb	0	; select bank0
  4613  0685  0822               	movf	main@zero,w
  4614  0686  0674               	xorwf	?___lwmod,w
  4615  0687  0475               	iorwf	?___lwmod+1,w
  4616  0688  1D03               	skipz
  4617  0689  2EB0               	goto	l2431
  4618                           
  4619                           ;main.c: 341:                         btn_count = 0;
  4620  068A  01C3               	clrf	main@btn_count
  4621  068B  01C4               	clrf	main@btn_count+1
  4622                           
  4623                           ;main.c: 342:                         prgm_count = 0;
  4624  068C  01C5               	clrf	main@prgm_count
  4625  068D  01C6               	clrf	main@prgm_count+1
  4626                           
  4627                           ;main.c: 343:                         set_btn = 1;
  4628  068E  3001               	movlw	1
  4629  068F  00B7               	movwf	main@set_btn
  4630  0690  3000               	movlw	0
  4631  0691  00B8               	movwf	main@set_btn+1
  4632                           
  4633                           ;main.c: 344:                         entr_btn = 1;
  4634  0692  3001               	movlw	1
  4635  0693  00AF               	movwf	main@entr_btn
  4636  0694  3000               	movlw	0
  4637  0695  00B0               	movwf	main@entr_btn+1
  4638                           
  4639                           ;main.c: 345:                         open_btn = 1;
  4640  0696  3001               	movlw	1
  4641  0697  00B1               	movwf	main@open_btn
  4642  0698  3000               	movlw	0
  4643  0699  00B2               	movwf	main@open_btn+1
  4644                           
  4645                           ;main.c: 346:                         deny_btn = 1;
  4646  069A  3001               	movlw	1
  4647  069B  00B3               	movwf	main@deny_btn
  4648  069C  3000               	movlw	0
  4649  069D  00B4               	movwf	main@deny_btn+1
  4650                           
  4651                           ;main.c: 347:                         lock = 1;
  4652  069E  3001               	movlw	1
  4653  069F  00B9               	movwf	main@lock
  4654  06A0  3000               	movlw	0
  4655  06A1  00BA               	movwf	main@lock+1
  4656                           
  4657                           ;main.c: 348:                         new_display = 1;
  4658  06A2  3001               	movlw	1
  4659  06A3  00A3               	movwf	main@new_display
  4660  06A4  3000               	movlw	0
  4661  06A5  00A4               	movwf	main@new_display+1
  4662                           
  4663                           ;main.c: 349:                         _delay((unsigned long)((200)*(1000000/4000.0)));
  4664  06A6  3041               	movlw	65
  4665  06A7  0020               	movlb	0	; select bank0
  4666  06A8  00A0               	movwf	??_main
  4667  06A9  30EE               	movlw	238
  4668  06AA                     u2047:	
  4669  06AA  0B89               	decfsz	9,f
  4670  06AB  2EAA               	goto	u2047
  4671  06AC  0BA0               	decfsz	??_main,f
  4672  06AD  2EAA               	goto	u2047
  4673  06AE  0000               	nop
  4674                           
  4675                           ;main.c: 350:                    }else{
  4676  06AF  2F8E               	goto	l2537
  4677  06B0                     l2431:	
  4678                           
  4679                           ;main.c: 351:                         btn_count = 0;
  4680  06B0  01C3               	clrf	main@btn_count
  4681  06B1  01C4               	clrf	main@btn_count+1
  4682                           
  4683                           ;main.c: 352:                         prgm_count = 1;
  4684  06B2  3001               	movlw	1
  4685  06B3  00C5               	movwf	main@prgm_count
  4686  06B4  3000               	movlw	0
  4687  06B5  00C6               	movwf	main@prgm_count+1
  4688                           
  4689                           ;main.c: 353:                         set_btn = 2;
  4690  06B6  3002               	movlw	2
  4691  06B7  00B7               	movwf	main@set_btn
  4692  06B8  3000               	movlw	0
  4693  06B9  00B8               	movwf	main@set_btn+1
  4694                           
  4695                           ;main.c: 354:                         entr_btn = 1;
  4696  06BA  3001               	movlw	1
  4697  06BB  00AF               	movwf	main@entr_btn
  4698  06BC  3000               	movlw	0
  4699  06BD  00B0               	movwf	main@entr_btn+1
  4700                           
  4701                           ;main.c: 355:                         open_btn = 1;
  4702  06BE  3001               	movlw	1
  4703  06BF  00B1               	movwf	main@open_btn
  4704  06C0  3000               	movlw	0
  4705  06C1  00B2               	movwf	main@open_btn+1
  4706                           
  4707                           ;main.c: 356:                         deny_btn = 1;
  4708  06C2  3001               	movlw	1
  4709  06C3  00B3               	movwf	main@deny_btn
  4710  06C4  3000               	movlw	0
  4711  06C5  00B4               	movwf	main@deny_btn+1
  4712                           
  4713                           ;main.c: 357:                         lock = 0;
  4714  06C6  01B9               	clrf	main@lock
  4715  06C7  01BA               	clrf	main@lock+1
  4716                           
  4717                           ;main.c: 358:                         lock_display = 1;
  4718  06C8  3001               	movlw	1
  4719  06C9  00A5               	movwf	main@lock_display
  4720  06CA  3000               	movlw	0
  4721  06CB  00A6               	movwf	main@lock_display+1
  4722                           
  4723                           ;main.c: 359:                         _delay((unsigned long)((200)*(1000000/4000.0)));
  4724  06CC  3041               	movlw	65
  4725  06CD  0020               	movlb	0	; select bank0
  4726  06CE  00A0               	movwf	??_main
  4727  06CF  30EE               	movlw	238
  4728  06D0                     u2057:	
  4729  06D0  0B89               	decfsz	9,f
  4730  06D1  2ED0               	goto	u2057
  4731  06D2  0BA0               	decfsz	??_main,f
  4732  06D3  2ED0               	goto	u2057
  4733  06D4  0000               	nop
  4734  06D5  2F8E               	goto	l2537
  4735  06D6                     l2445:	
  4736                           
  4737                           ;main.c: 365:                 _delay((unsigned long)((200)*(1000000/4000.0)));
  4738  06D6  3041               	movlw	65
  4739  06D7  0020               	movlb	0	; select bank0
  4740  06D8  00A0               	movwf	??_main
  4741  06D9  30EE               	movlw	238
  4742  06DA                     u2067:	
  4743  06DA  0B89               	decfsz	9,f
  4744  06DB  2EDA               	goto	u2067
  4745  06DC  0BA0               	decfsz	??_main,f
  4746  06DD  2EDA               	goto	u2067
  4747  06DE  0000               	nop
  4748  06DF                     l2485:	
  4749                           ;main.c: 366:                 while(deny_btn == 1){
  4750                           
  4751                           
  4752                           ;main.c: 366:                 while(deny_btn == 1){
  4753  06DF  0020               	movlb	0	; select bank0
  4754  06E0  0333               	decf	main@deny_btn,w
  4755  06E1  0434               	iorwf	main@deny_btn+1,w
  4756  06E2  1D03               	btfss	3,2
  4757  06E3  2F32               	goto	l479
  4758                           
  4759                           ;main.c: 368:                     do { LATCbits.LATC7 = 1; } while(0);
  4760  06E4  1798               	bsf	24,7	;volatile
  4761                           
  4762                           ;main.c: 369:                     digitShow(deny[3]);
  4763  06E5  0852               	movf	_deny+3,w
  4764  06E6  3181  2134  3182   	fcall	_digitShow
  4765                           
  4766                           ;main.c: 370:                     _delay((unsigned long)((1)*(1000000/4000.0)));
  4767  06E9  3053               	movlw	83
  4768  06EA                     u2077:	
  4769  06EA  0B89               	decfsz	9,f
  4770  06EB  2EEA               	goto	u2077
  4771  06EC  0000               	nop
  4772  06ED  0020               	movlb	0	; select bank0
  4773  06EE  1297               	bcf	23,5	;volatile
  4774                           
  4775                           ;main.c: 372:                     _delay((unsigned long)((5)*(1000000/4000.0)));
  4776  06EF  30FA               	movlw	250
  4777  06F0                     u2087:	
  4778  06F0  3200               	nop2
  4779  06F1  0B89               	decfsz	9,f
  4780  06F2  2EF0               	goto	u2087
  4781  06F3  0020               	movlb	0	; select bank0
  4782  06F4  1697               	bsf	23,5	;volatile
  4783                           
  4784                           ;main.c: 375:                     digitShow(deny[2]);
  4785  06F5  0851               	movf	_deny+2,w
  4786  06F6  3181  2134  3182   	fcall	_digitShow
  4787                           
  4788                           ;main.c: 376:                     _delay((unsigned long)((1)*(1000000/4000.0)));
  4789  06F9  3053               	movlw	83
  4790  06FA                     u2097:	
  4791  06FA  0B89               	decfsz	9,f
  4792  06FB  2EFA               	goto	u2097
  4793  06FC  0000               	nop
  4794  06FD  0020               	movlb	0	; select bank0
  4795  06FE  1218               	bcf	24,4	;volatile
  4796                           
  4797                           ;main.c: 378:                     _delay((unsigned long)((5)*(1000000/4000.0)));
  4798  06FF  30FA               	movlw	250
  4799  0700                     u2107:	
  4800  0700  3200               	nop2
  4801  0701  0B89               	decfsz	9,f
  4802  0702  2F00               	goto	u2107
  4803  0703  0020               	movlb	0	; select bank0
  4804  0704  1618               	bsf	24,4	;volatile
  4805                           
  4806                           ;main.c: 381:                     digitShow(deny[1]);
  4807  0705  0850               	movf	_deny+1,w
  4808  0706  3181  2134  3182   	fcall	_digitShow
  4809                           
  4810                           ;main.c: 382:                     _delay((unsigned long)((1)*(1000000/4000.0)));
  4811  0709  3053               	movlw	83
  4812  070A                     u2117:	
  4813  070A  0B89               	decfsz	9,f
  4814  070B  2F0A               	goto	u2117
  4815  070C  0000               	nop
  4816  070D  0020               	movlb	0	; select bank0
  4817  070E  1298               	bcf	24,5	;volatile
  4818                           
  4819                           ;main.c: 384:                     _delay((unsigned long)((5)*(1000000/4000.0)));
  4820  070F  30FA               	movlw	250
  4821  0710                     u2127:	
  4822  0710  3200               	nop2
  4823  0711  0B89               	decfsz	9,f
  4824  0712  2F10               	goto	u2127
  4825  0713  0020               	movlb	0	; select bank0
  4826  0714  1698               	bsf	24,5	;volatile
  4827                           
  4828                           ;main.c: 387:                     digitShow(deny[0]);
  4829  0715  084F               	movf	_deny,w
  4830  0716  3181  2134  3182   	fcall	_digitShow
  4831                           
  4832                           ;main.c: 388:                     _delay((unsigned long)((1)*(1000000/4000.0)));
  4833  0719  3053               	movlw	83
  4834  071A                     u2137:	
  4835  071A  0B89               	decfsz	9,f
  4836  071B  2F1A               	goto	u2137
  4837  071C  0000               	nop
  4838  071D  0020               	movlb	0	; select bank0
  4839  071E  1398               	bcf	24,7	;volatile
  4840                           
  4841                           ;main.c: 390:                     _delay((unsigned long)((5)*(1000000/4000.0)));
  4842  071F  30FA               	movlw	250
  4843  0720                     u2147:	
  4844  0720  3200               	nop2
  4845  0721  0B89               	decfsz	9,f
  4846  0722  2F20               	goto	u2147
  4847                           
  4848                           ;main.c: 392:                     if(PORTAbits.RA5 == 0){
  4849  0723  0020               	movlb	0	; select bank0
  4850  0724  1A8C               	btfsc	12,5	;volatile
  4851  0725  2EDF               	goto	l2485
  4852                           
  4853                           ;main.c: 393:                         deny_btn = 0;
  4854  0726  01B3               	clrf	main@deny_btn
  4855  0727  01B4               	clrf	main@deny_btn+1
  4856                           
  4857                           ;main.c: 394:                         _delay((unsigned long)((25)*(1000000/4000.0)));
  4858  0728  3009               	movlw	9
  4859  0729  0020               	movlb	0	; select bank0
  4860  072A  00A0               	movwf	??_main
  4861  072B  301C               	movlw	28
  4862  072C                     u2157:	
  4863  072C  0B89               	decfsz	9,f
  4864  072D  2F2C               	goto	u2157
  4865  072E  0BA0               	decfsz	??_main,f
  4866  072F  2F2C               	goto	u2157
  4867  0730  0000               	nop
  4868  0731  2EDF               	goto	l2485
  4869  0732                     l479:	
  4870                           ;main.c: 398:                    do { LATCbits.LATC7 = 1; } while(0);
  4871                           
  4872  0732  1798               	bsf	24,7	;volatile
  4873                           
  4874                           ;main.c: 399:                    do { LATCbits.LATC5 = 1; } while(0);
  4875  0733  1698               	bsf	24,5	;volatile
  4876                           
  4877                           ;main.c: 400:                    do { LATCbits.LATC4 = 1; } while(0);
  4878  0734  1618               	bsf	24,4	;volatile
  4879                           
  4880                           ;main.c: 401:                    do { LATBbits.LATB5 = 1; } while(0);
  4881  0735  1697               	bsf	23,5	;volatile
  4882                           
  4883                           ;main.c: 403:                    btn_count = 0;
  4884  0736  01C3               	clrf	main@btn_count
  4885  0737  01C4               	clrf	main@btn_count+1
  4886                           
  4887                           ;main.c: 404:                    prgm_count = 1;
  4888  0738  3001               	movlw	1
  4889  0739  00C5               	movwf	main@prgm_count
  4890  073A  3000               	movlw	0
  4891  073B  00C6               	movwf	main@prgm_count+1
  4892                           
  4893                           ;main.c: 405:                    set_btn = 2;
  4894  073C  3002               	movlw	2
  4895  073D  00B7               	movwf	main@set_btn
  4896  073E  3000               	movlw	0
  4897  073F  00B8               	movwf	main@set_btn+1
  4898                           
  4899                           ;main.c: 406:                    entr_btn = 1;
  4900  0740  3001               	movlw	1
  4901  0741  00AF               	movwf	main@entr_btn
  4902  0742  3000               	movlw	0
  4903  0743  00B0               	movwf	main@entr_btn+1
  4904                           
  4905                           ;main.c: 407:                    open_btn = 1;
  4906  0744  3001               	movlw	1
  4907  0745  00B1               	movwf	main@open_btn
  4908  0746  3000               	movlw	0
  4909  0747  00B2               	movwf	main@open_btn+1
  4910                           
  4911                           ;main.c: 408:                    deny_btn = 1;
  4912  0748  3001               	movlw	1
  4913  0749  00B3               	movwf	main@deny_btn
  4914  074A  3000               	movlw	0
  4915  074B  00B4               	movwf	main@deny_btn+1
  4916                           
  4917                           ;main.c: 409:                    lock = 0;
  4918  074C  01B9               	clrf	main@lock
  4919  074D  01BA               	clrf	main@lock+1
  4920                           
  4921                           ;main.c: 410:                    _delay((unsigned long)((200)*(1000000/4000.0)));
  4922  074E  3041               	movlw	65
  4923  074F  0020               	movlb	0	; select bank0
  4924  0750  00A0               	movwf	??_main
  4925  0751  30EE               	movlw	238
  4926  0752                     u2167:	
  4927  0752  0B89               	decfsz	9,f
  4928  0753  2F52               	goto	u2167
  4929  0754  0BA0               	decfsz	??_main,f
  4930  0755  2F52               	goto	u2167
  4931  0756  0000               	nop
  4932  0757  2F8E               	goto	l2537
  4933  0758                     l426:	
  4934                           ;main.c: 413:         else if(PORTAbits.RA5 == 0 && btn_count == 4 && prgm_count == 0){
  4935                           
  4936  0758  1A8C               	btfsc	12,5	;volatile
  4937  0759  2F6C               	goto	l488
  4938  075A  3004               	movlw	4
  4939  075B  0643               	xorwf	main@btn_count,w
  4940  075C  0444               	iorwf	main@btn_count+1,w
  4941  075D  1D03               	btfss	3,2
  4942  075E  2F6C               	goto	l488
  4943  075F  0845               	movf	main@prgm_count,w
  4944  0760  0446               	iorwf	main@prgm_count+1,w
  4945  0761  1D03               	btfss	3,2
  4946  0762  2F6C               	goto	l488
  4947                           
  4948                           ;main.c: 414:             digit[0] = 0;
  4949  0763  01BB               	clrf	main@digit
  4950  0764  01BC               	clrf	main@digit+1
  4951                           
  4952                           ;main.c: 415:             digit[1] = 0;
  4953  0765  01BD               	clrf	main@digit+2
  4954  0766  01BE               	clrf	main@digit+3
  4955                           
  4956                           ;main.c: 416:             digit[2] = 0;
  4957  0767  01BF               	clrf	main@digit+4
  4958  0768  01C0               	clrf	main@digit+5
  4959                           
  4960                           ;main.c: 417:             digit[3] = 0;
  4961  0769  01C1               	clrf	main@digit+6
  4962  076A  01C2               	clrf	main@digit+7
  4963  076B  2F77               	goto	l2523
  4964  076C                     l488:	
  4965                           ;main.c: 426:         else if(PORTAbits.RA5 == 0 && btn_count == 4 && prgm_count == 1){
  4966                           
  4967                           ;main.c: 425:         }
  4968                           
  4969                           ;main.c: 419:             prgm_count++;
  4970                           
  4971                           ;main.c: 418:             btn_count = 0;
  4972                           
  4973  076C  1A8C               	btfsc	12,5	;volatile
  4974  076D  2F8E               	goto	l2537
  4975  076E  3004               	movlw	4
  4976  076F  0643               	xorwf	main@btn_count,w
  4977  0770  0444               	iorwf	main@btn_count+1,w
  4978  0771  1D03               	btfss	3,2
  4979  0772  2F8E               	goto	l2537
  4980  0773  0345               	decf	main@prgm_count,w
  4981  0774  0446               	iorwf	main@prgm_count+1,w
  4982  0775  1D03               	btfss	3,2
  4983  0776  2F8E               	goto	l2537
  4984  0777                     l2523:	
  4985                           
  4986                           ;main.c: 427:             btn_count = 0;
  4987  0777  01C3               	clrf	main@btn_count
  4988  0778  01C4               	clrf	main@btn_count+1
  4989                           
  4990                           ;main.c: 428:             prgm_count++;
  4991  0779  3001               	movlw	1
  4992  077A  07C5               	addwf	main@prgm_count,f
  4993  077B  3000               	movlw	0
  4994  077C  3DC6               	addwfc	main@prgm_count+1,f
  4995  077D  1016               	bcf	22,0	;volatile
  4996  077E  1096               	bcf	22,1	;volatile
  4997  077F  1116               	bcf	22,2	;volatile
  4998  0780  1196               	bcf	22,3	;volatile
  4999                           
  5000                           ;main.c: 424:             _delay((unsigned long)((1000)*(1000000/4000.0)));
  5001  0781  3002               	movlw	2
  5002  0782  0020               	movlb	0	; select bank0
  5003  0783  00A1               	movwf	??_main+1
  5004  0784  3045               	movlw	69
  5005  0785  00A0               	movwf	??_main
  5006  0786  30A9               	movlw	169
  5007  0787                     u2177:	
  5008  0787  0B89               	decfsz	9,f
  5009  0788  2F87               	goto	u2177
  5010  0789  0BA0               	decfsz	??_main,f
  5011  078A  2F87               	goto	u2177
  5012  078B  0BA1               	decfsz	??_main+1,f
  5013  078C  2F87               	goto	u2177
  5014  078D  3200               	nop2
  5015  078E                     l2537:	
  5016                           
  5017                           ;main.c: 436:         digit__ = (ADCC_GetSingleConversion(POT)>>4) % 10;
  5018  078E  300A               	movlw	10
  5019  078F  00F4               	movwf	___lwmod@divisor
  5020  0790  3000               	movlw	0
  5021  0791  00F5               	movwf	___lwmod@divisor+1
  5022  0792  3004               	movlw	4
  5023  0793  3180  205C  3182   	fcall	_ADCC_GetSingleConversion
  5024  0796  0E70               	swapf	?_ADCC_GetSingleConversion,w
  5025  0797  390F               	andlw	15
  5026  0798  00F6               	movwf	___lwmod@dividend
  5027  0799  0E71               	swapf	?_ADCC_GetSingleConversion+1,w
  5028  079A  39F0               	andlw	240
  5029  079B  04F6               	iorwf	___lwmod@dividend,f
  5030  079C  0E71               	swapf	?_ADCC_GetSingleConversion+1,w
  5031  079D  390F               	andlw	15
  5032  079E  00F7               	movwf	___lwmod@dividend+1
  5033  079F  3180  20D4  3182   	fcall	___lwmod
  5034  07A2  0874               	movf	?___lwmod,w
  5035  07A3  0020               	movlb	0	; select bank0
  5036  07A4  00A0               	movwf	??_main
  5037  07A5  0820               	movf	??_main,w
  5038  07A6  00B5               	movwf	main@digit__
  5039                           
  5040                           ;main.c: 437:         last__ = (ADCC_GetSingleConversion(POT)>>4) / 10;
  5041  07A7  300A               	movlw	10
  5042  07A8  00F4               	movwf	___lwdiv@divisor
  5043  07A9  3000               	movlw	0
  5044  07AA  00F5               	movwf	___lwdiv@divisor+1
  5045  07AB  3004               	movlw	4
  5046  07AC  3180  205C  3182   	fcall	_ADCC_GetSingleConversion
  5047  07AF  0E70               	swapf	?_ADCC_GetSingleConversion,w
  5048  07B0  390F               	andlw	15
  5049  07B1  00F6               	movwf	___lwdiv@dividend
  5050  07B2  0E71               	swapf	?_ADCC_GetSingleConversion+1,w
  5051  07B3  39F0               	andlw	240
  5052  07B4  04F6               	iorwf	___lwdiv@dividend,f
  5053  07B5  0E71               	swapf	?_ADCC_GetSingleConversion+1,w
  5054  07B6  390F               	andlw	15
  5055  07B7  00F7               	movwf	___lwdiv@dividend+1
  5056  07B8  3181  2100  3182   	fcall	___lwdiv
  5057  07BB  0874               	movf	?___lwdiv,w
  5058  07BC  0020               	movlb	0	; select bank0
  5059  07BD  00A0               	movwf	??_main
  5060  07BE  0820               	movf	??_main,w
  5061  07BF  00B6               	movwf	main@last__
  5062  07C0  1618               	bsf	24,4	;volatile
  5063  07C1  1297               	bcf	23,5	;volatile
  5064                           
  5065                           ;main.c: 441:         digitShow(digit__);
  5066  07C2  0835               	movf	main@digit__,w
  5067  07C3  3181  2134  3182   	fcall	_digitShow
  5068                           
  5069                           ;main.c: 442:         _delay((unsigned long)((2)*(1000000/4000.0)));
  5070  07C6  30A6               	movlw	166
  5071  07C7                     u2187:	
  5072  07C7  0B89               	decfsz	9,f
  5073  07C8  2FC7               	goto	u2187
  5074  07C9  3200               	nop2
  5075  07CA  0020               	movlb	0	; select bank0
  5076  07CB  1697               	bsf	23,5	;volatile
  5077                           
  5078                           ;main.c: 444:         digitShow(last__);
  5079  07CC  0836               	movf	main@last__,w
  5080  07CD  3181  2134  3182   	fcall	_digitShow
  5081  07D0  0020               	movlb	0	; select bank0
  5082  07D1  1697               	bsf	23,5	;volatile
  5083  07D2  1218               	bcf	24,4	;volatile
  5084                           
  5085                           ;main.c: 447:         digitShow(last__);
  5086  07D3  0836               	movf	main@last__,w
  5087  07D4  3181  2134  3182   	fcall	_digitShow
  5088                           
  5089                           ;main.c: 448:         _delay((unsigned long)((2)*(1000000/4000.0)));
  5090  07D7  30A6               	movlw	166
  5091  07D8                     u2197:	
  5092  07D8  0B89               	decfsz	9,f
  5093  07D9  2FD8               	goto	u2197
  5094  07DA  3200               	nop2
  5095  07DB  0020               	movlb	0	; select bank0
  5096  07DC  1618               	bsf	24,4	;volatile
  5097                           
  5098                           ;main.c: 450:         digitShow(digit__);
  5099  07DD  0835               	movf	main@digit__,w
  5100  07DE  3181  2134  3182   	fcall	_digitShow
  5101  07E1  2B22               	goto	l2109
  5102  07E2                     __end_of_main:	
  5103                           
  5104                           	psect	text1
  5105  0134                     __ptext1:	
  5106 ;; *************** function _digitShow *****************
  5107 ;; Defined at:
  5108 ;;		line 56 in file "main.c"
  5109 ;; Parameters:    Size  Location     Type
  5110 ;;  value           1    wreg     unsigned char 
  5111 ;; Auto vars:     Size  Location     Type
  5112 ;;  value           1   10[COMMON] unsigned char 
  5113 ;;  p               2   11[COMMON] PTR unsigned char 
  5114 ;;		 -> matrix_word(259), 
  5115 ;; Return value:  Size  Location     Type
  5116 ;;                  1    wreg      void 
  5117 ;; Registers used:
  5118 ;;		wreg, fsr1l, fsr1h, status,2, status,0, pclath, cstack
  5119 ;; Tracked objects:
  5120 ;;		On entry : 0/0
  5121 ;;		On exit  : 0/0
  5122 ;;		Unchanged: 0/0
  5123 ;; Data sizes:     COMMON   BANK0   BANK1   BANK2   BANK3   BANK4   BANK5   BANK6   BANK7   BANK8   BANK9  BANK10  BANK1
      +1  BANK12
  5124 ;;      Params:         0       0       0       0       0       0       0       0       0       0       0       0       
      +0       0
  5125 ;;      Locals:         3       0       0       0       0       0       0       0       0       0       0       0       
      +0       0
  5126 ;;      Temps:          4       0       0       0       0       0       0       0       0       0       0       0       
      +0       0
  5127 ;;      Totals:         7       0       0       0       0       0       0       0       0       0       0       0       
      +0       0
  5128 ;;Total ram usage:        7 bytes
  5129 ;; Hardware stack levels used:    1
  5130 ;; Hardware stack levels required when called:    1
  5131 ;; This function calls:
  5132 ;;		___wmul
  5133 ;; This function is called by:
  5134 ;;		_main
  5135 ;; This function uses a non-reentrant model
  5136 ;;
  5137                           
  5138                           
  5139                           ;psect for function _digitShow
  5140  0134                     _digitShow:	
  5141                           
  5142                           ;incstack = 0
  5143                           ; Regs used in _digitShow: [wreg+fsr1l+fsr1h+status,2+status,0+pclath+cstack]
  5144                           ;digitShow@value stored from wreg
  5145  0134  00FA               	movwf	digitShow@value
  5146                           
  5147                           ;main.c: 56: void digitShow(uint8_t value);main.c: 57: {;main.c: 60:     uint8_t *p=&mat
      +                          rix_word[value*7];
  5148  0135  087A               	movf	digitShow@value,w
  5149  0136  00F6               	movwf	??_digitShow
  5150  0137  01F7               	clrf	??_digitShow+1
  5151  0138  0876               	movf	??_digitShow,w
  5152  0139  00F0               	movwf	___wmul@multiplier
  5153  013A  0877               	movf	??_digitShow+1,w
  5154  013B  00F1               	movwf	___wmul@multiplier+1
  5155  013C  3007               	movlw	7
  5156  013D  00F2               	movwf	___wmul@multiplicand
  5157  013E  3000               	movlw	0
  5158  013F  00F3               	movwf	___wmul@multiplicand+1
  5159  0140  3180  209A  3181   	fcall	___wmul
  5160  0143  30ED               	movlw	237
  5161  0144  00F8               	movwf	??_digitShow+2
  5162  0145  3022               	movlw	34
  5163  0146  00F9               	movwf	??_digitShow+3
  5164  0147  0870               	movf	?___wmul,w
  5165  0148  0778               	addwf	??_digitShow+2,w
  5166  0149  00FB               	movwf	digitShow@p
  5167  014A  0871               	movf	?___wmul+1,w
  5168  014B  3D79               	addwfc	??_digitShow+3,w
  5169  014C  00FC               	movwf	digitShow@p+1
  5170                           
  5171                           ;main.c: 61:     LATCbits.LATC2 = *p++;
  5172  014D  087B               	movf	digitShow@p,w
  5173  014E  0086               	movwf	6
  5174  014F  087C               	movf	digitShow@p+1,w
  5175  0150  0087               	movwf	7
  5176  0151  0C01               	rrf	1,w
  5177  0152  0020               	movlb	0	; select bank0
  5178  0153  1C03               	skipc
  5179  0154  1118               	bcf	24,2	;volatile
  5180  0155  1803               	skipnc
  5181  0156  1518               	bsf	24,2	;volatile
  5182  0157  3001               	movlw	1
  5183  0158  07FB               	addwf	digitShow@p,f
  5184  0159  3000               	movlw	0
  5185  015A  3DFC               	addwfc	digitShow@p+1,f
  5186                           
  5187                           ;main.c: 62:     LATCbits.LATC3 = *p++;
  5188  015B  087B               	movf	digitShow@p,w
  5189  015C  0086               	movwf	6
  5190  015D  087C               	movf	digitShow@p+1,w
  5191  015E  0087               	movwf	7
  5192  015F  0C01               	rrf	1,w
  5193  0160  1C03               	skipc
  5194  0161  1198               	bcf	24,3	;volatile
  5195  0162  1803               	skipnc
  5196  0163  1598               	bsf	24,3	;volatile
  5197  0164  3001               	movlw	1
  5198  0165  07FB               	addwf	digitShow@p,f
  5199  0166  3000               	movlw	0
  5200  0167  3DFC               	addwfc	digitShow@p+1,f
  5201                           
  5202                           ;main.c: 63:     LATBbits.LATB3 = *p++;
  5203  0168  087B               	movf	digitShow@p,w
  5204  0169  0086               	movwf	6
  5205  016A  087C               	movf	digitShow@p+1,w
  5206  016B  0087               	movwf	7
  5207  016C  0C01               	rrf	1,w
  5208  016D  1C03               	skipc
  5209  016E  1197               	bcf	23,3	;volatile
  5210  016F  1803               	skipnc
  5211  0170  1597               	bsf	23,3	;volatile
  5212  0171  3001               	movlw	1
  5213  0172  07FB               	addwf	digitShow@p,f
  5214  0173  3000               	movlw	0
  5215  0174  3DFC               	addwfc	digitShow@p+1,f
  5216                           
  5217                           ;main.c: 64:     LATBbits.LATB1 = *p++;
  5218  0175  087B               	movf	digitShow@p,w
  5219  0176  0086               	movwf	6
  5220  0177  087C               	movf	digitShow@p+1,w
  5221  0178  0087               	movwf	7
  5222  0179  0C01               	rrf	1,w
  5223  017A  1C03               	skipc
  5224  017B  1097               	bcf	23,1	;volatile
  5225  017C  1803               	skipnc
  5226  017D  1497               	bsf	23,1	;volatile
  5227  017E  3001               	movlw	1
  5228  017F  07FB               	addwf	digitShow@p,f
  5229  0180  3000               	movlw	0
  5230  0181  3DFC               	addwfc	digitShow@p+1,f
  5231                           
  5232                           ;main.c: 65:     LATBbits.LATB0 = *p++;
  5233  0182  087B               	movf	digitShow@p,w
  5234  0183  0086               	movwf	6
  5235  0184  087C               	movf	digitShow@p+1,w
  5236  0185  0087               	movwf	7
  5237  0186  0C01               	rrf	1,w
  5238  0187  1C03               	skipc
  5239  0188  1017               	bcf	23,0	;volatile
  5240  0189  1803               	skipnc
  5241  018A  1417               	bsf	23,0	;volatile
  5242  018B  3001               	movlw	1
  5243  018C  07FB               	addwf	digitShow@p,f
  5244  018D  3000               	movlw	0
  5245  018E  3DFC               	addwfc	digitShow@p+1,f
  5246                           
  5247                           ;main.c: 66:     LATCbits.LATC6 = *p++;
  5248  018F  087B               	movf	digitShow@p,w
  5249  0190  0086               	movwf	6
  5250  0191  087C               	movf	digitShow@p+1,w
  5251  0192  0087               	movwf	7
  5252  0193  0C01               	rrf	1,w
  5253  0194  1C03               	skipc
  5254  0195  1318               	bcf	24,6	;volatile
  5255  0196  1803               	skipnc
  5256  0197  1718               	bsf	24,6	;volatile
  5257  0198  3001               	movlw	1
  5258  0199  07FB               	addwf	digitShow@p,f
  5259  019A  3000               	movlw	0
  5260  019B  3DFC               	addwfc	digitShow@p+1,f
  5261                           
  5262                           ;main.c: 67:     LATBbits.LATB4 = *p++;
  5263  019C  087B               	movf	digitShow@p,w
  5264  019D  0086               	movwf	6
  5265  019E  087C               	movf	digitShow@p+1,w
  5266  019F  0087               	movwf	7
  5267  01A0  0C01               	rrf	1,w
  5268  01A1  1C03               	skipc
  5269  01A2  1217               	bcf	23,4	;volatile
  5270  01A3  1803               	skipnc
  5271  01A4  1617               	bsf	23,4	;volatile
  5272  01A5  3001               	movlw	1
  5273  01A6  07FB               	addwf	digitShow@p,f
  5274  01A7  3000               	movlw	0
  5275  01A8  3DFC               	addwfc	digitShow@p+1,f
  5276  01A9  0008               	return
  5277  01AA                     __end_of_digitShow:	
  5278                           
  5279                           	psect	text2
  5280  009A                     __ptext2:	
  5281 ;; *************** function ___wmul *****************
  5282 ;; Defined at:
  5283 ;;		line 15 in file "C:\Program Files (x86)\Microchip\xc8\v2.05\pic\sources\c99\common\Umul16.c"
  5284 ;; Parameters:    Size  Location     Type
  5285 ;;  multiplier      2    0[COMMON] unsigned int 
  5286 ;;  multiplicand    2    2[COMMON] unsigned int 
  5287 ;; Auto vars:     Size  Location     Type
  5288 ;;  product         2    4[COMMON] unsigned int 
  5289 ;; Return value:  Size  Location     Type
  5290 ;;                  2    0[COMMON] unsigned int 
  5291 ;; Registers used:
  5292 ;;		wreg, status,2, status,0
  5293 ;; Tracked objects:
  5294 ;;		On entry : 0/0
  5295 ;;		On exit  : 0/0
  5296 ;;		Unchanged: 0/0
  5297 ;; Data sizes:     COMMON   BANK0   BANK1   BANK2   BANK3   BANK4   BANK5   BANK6   BANK7   BANK8   BANK9  BANK10  BANK1
      +1  BANK12
  5298 ;;      Params:         4       0       0       0       0       0       0       0       0       0       0       0       
      +0       0
  5299 ;;      Locals:         2       0       0       0       0       0       0       0       0       0       0       0       
      +0       0
  5300 ;;      Temps:          0       0       0       0       0       0       0       0       0       0       0       0       
      +0       0
  5301 ;;      Totals:         6       0       0       0       0       0       0       0       0       0       0       0       
      +0       0
  5302 ;;Total ram usage:        6 bytes
  5303 ;; Hardware stack levels used:    1
  5304 ;; This function calls:
  5305 ;;		Nothing
  5306 ;; This function is called by:
  5307 ;;		_digitShow
  5308 ;; This function uses a non-reentrant model
  5309 ;;
  5310                           
  5311                           
  5312                           ;psect for function ___wmul
  5313  009A                     ___wmul:	
  5314                           
  5315                           ;incstack = 0
  5316                           ; Regs used in ___wmul: [wreg+status,2+status,0]
  5317  009A  01F4               	clrf	___wmul@product
  5318  009B  01F5               	clrf	___wmul@product+1
  5319  009C                     l1927:	
  5320  009C  1C70               	btfss	___wmul@multiplier,0
  5321  009D  28A2               	goto	l673
  5322  009E  0872               	movf	___wmul@multiplicand,w
  5323  009F  07F4               	addwf	___wmul@product,f
  5324  00A0  0873               	movf	___wmul@multiplicand+1,w
  5325  00A1  3DF5               	addwfc	___wmul@product+1,f
  5326  00A2                     l673:	
  5327  00A2  3001               	movlw	1
  5328  00A3                     u775:	
  5329  00A3  35F2               	lslf	___wmul@multiplicand,f
  5330  00A4  0DF3               	rlf	___wmul@multiplicand+1,f
  5331  00A5  0B89               	decfsz	9,f
  5332  00A6  28A3               	goto	u775
  5333  00A7  3001               	movlw	1
  5334  00A8                     u785:	
  5335  00A8  36F1               	lsrf	___wmul@multiplier+1,f
  5336  00A9  0CF0               	rrf	___wmul@multiplier,f
  5337  00AA  0B89               	decfsz	9,f
  5338  00AB  28A8               	goto	u785
  5339  00AC  0870               	movf	___wmul@multiplier,w
  5340  00AD  0471               	iorwf	___wmul@multiplier+1,w
  5341  00AE  1D03               	btfss	3,2
  5342  00AF  289C               	goto	l1927
  5343  00B0  0875               	movf	___wmul@product+1,w
  5344  00B1  00F1               	movwf	?___wmul+1
  5345  00B2  0874               	movf	___wmul@product,w
  5346  00B3  00F0               	movwf	?___wmul
  5347  00B4  0008               	return
  5348  00B5                     __end_of___wmul:	
  5349                           
  5350                           	psect	text3
  5351  00D4                     __ptext3:	
  5352 ;; *************** function ___lwmod *****************
  5353 ;; Defined at:
  5354 ;;		line 5 in file "C:\Program Files (x86)\Microchip\xc8\v2.05\pic\sources\c99\common\lwmod.c"
  5355 ;; Parameters:    Size  Location     Type
  5356 ;;  divisor         2    4[COMMON] unsigned int 
  5357 ;;  dividend        2    6[COMMON] unsigned int 
  5358 ;; Auto vars:     Size  Location     Type
  5359 ;;  counter         1    9[COMMON] unsigned char 
  5360 ;; Return value:  Size  Location     Type
  5361 ;;                  2    4[COMMON] unsigned int 
  5362 ;; Registers used:
  5363 ;;		wreg, status,2, status,0
  5364 ;; Tracked objects:
  5365 ;;		On entry : 0/0
  5366 ;;		On exit  : 0/0
  5367 ;;		Unchanged: 0/0
  5368 ;; Data sizes:     COMMON   BANK0   BANK1   BANK2   BANK3   BANK4   BANK5   BANK6   BANK7   BANK8   BANK9  BANK10  BANK1
      +1  BANK12
  5369 ;;      Params:         4       0       0       0       0       0       0       0       0       0       0       0       
      +0       0
  5370 ;;      Locals:         1       0       0       0       0       0       0       0       0       0       0       0       
      +0       0
  5371 ;;      Temps:          1       0       0       0       0       0       0       0       0       0       0       0       
      +0       0
  5372 ;;      Totals:         6       0       0       0       0       0       0       0       0       0       0       0       
      +0       0
  5373 ;;Total ram usage:        6 bytes
  5374 ;; Hardware stack levels used:    1
  5375 ;; This function calls:
  5376 ;;		Nothing
  5377 ;; This function is called by:
  5378 ;;		_main
  5379 ;; This function uses a non-reentrant model
  5380 ;;
  5381                           
  5382                           
  5383                           ;psect for function ___lwmod
  5384  00D4                     ___lwmod:	
  5385                           
  5386                           ;incstack = 0
  5387                           ; Regs used in ___lwmod: [wreg+status,2+status,0]
  5388  00D4  0874               	movf	___lwmod@divisor,w
  5389  00D5  0475               	iorwf	___lwmod@divisor+1,w
  5390  00D6  1903               	btfsc	3,2
  5391  00D7  28FB               	goto	l2035
  5392  00D8  01F9               	clrf	___lwmod@counter
  5393  00D9  0AF9               	incf	___lwmod@counter,f
  5394  00DA                     l2025:	
  5395  00DA  1BF5               	btfsc	___lwmod@divisor+1,7
  5396  00DB  28E6               	goto	l2027
  5397  00DC  3001               	movlw	1
  5398  00DD                     u895:	
  5399  00DD  35F4               	lslf	___lwmod@divisor,f
  5400  00DE  0DF5               	rlf	___lwmod@divisor+1,f
  5401  00DF  0B89               	decfsz	9,f
  5402  00E0  28DD               	goto	u895
  5403  00E1  3001               	movlw	1
  5404  00E2  00F8               	movwf	??___lwmod
  5405  00E3  0878               	movf	??___lwmod,w
  5406  00E4  07F9               	addwf	___lwmod@counter,f
  5407  00E5  28DA               	goto	l2025
  5408  00E6                     l2027:	
  5409  00E6  0875               	movf	___lwmod@divisor+1,w
  5410  00E7  0277               	subwf	___lwmod@dividend+1,w
  5411  00E8  1D03               	skipz
  5412  00E9  28EC               	goto	u915
  5413  00EA  0874               	movf	___lwmod@divisor,w
  5414  00EB  0276               	subwf	___lwmod@dividend,w
  5415  00EC                     u915:	
  5416  00EC  1C03               	skipc
  5417  00ED  28F2               	goto	l2031
  5418  00EE  0874               	movf	___lwmod@divisor,w
  5419  00EF  02F6               	subwf	___lwmod@dividend,f
  5420  00F0  0875               	movf	___lwmod@divisor+1,w
  5421  00F1  3BF7               	subwfb	___lwmod@dividend+1,f
  5422  00F2                     l2031:	
  5423  00F2  3001               	movlw	1
  5424  00F3                     u925:	
  5425  00F3  36F5               	lsrf	___lwmod@divisor+1,f
  5426  00F4  0CF4               	rrf	___lwmod@divisor,f
  5427  00F5  0B89               	decfsz	9,f
  5428  00F6  28F3               	goto	u925
  5429  00F7  3001               	movlw	1
  5430  00F8  02F9               	subwf	___lwmod@counter,f
  5431  00F9  1D03               	btfss	3,2
  5432  00FA  28E6               	goto	l2027
  5433  00FB                     l2035:	
  5434  00FB  0877               	movf	___lwmod@dividend+1,w
  5435  00FC  00F5               	movwf	?___lwmod+1
  5436  00FD  0876               	movf	___lwmod@dividend,w
  5437  00FE  00F4               	movwf	?___lwmod
  5438  00FF  0008               	return
  5439  0100                     __end_of___lwmod:	
  5440                           
  5441                           	psect	text4
  5442  0100                     __ptext4:	
  5443 ;; *************** function ___lwdiv *****************
  5444 ;; Defined at:
  5445 ;;		line 5 in file "C:\Program Files (x86)\Microchip\xc8\v2.05\pic\sources\c99\common\lwdiv.c"
  5446 ;; Parameters:    Size  Location     Type
  5447 ;;  divisor         2    4[COMMON] unsigned int 
  5448 ;;  dividend        2    6[COMMON] unsigned int 
  5449 ;; Auto vars:     Size  Location     Type
  5450 ;;  quotient        2    9[COMMON] unsigned int 
  5451 ;;  counter         1   11[COMMON] unsigned char 
  5452 ;; Return value:  Size  Location     Type
  5453 ;;                  2    4[COMMON] unsigned int 
  5454 ;; Registers used:
  5455 ;;		wreg, status,2, status,0
  5456 ;; Tracked objects:
  5457 ;;		On entry : 0/0
  5458 ;;		On exit  : 0/0
  5459 ;;		Unchanged: 0/0
  5460 ;; Data sizes:     COMMON   BANK0   BANK1   BANK2   BANK3   BANK4   BANK5   BANK6   BANK7   BANK8   BANK9  BANK10  BANK1
      +1  BANK12
  5461 ;;      Params:         4       0       0       0       0       0       0       0       0       0       0       0       
      +0       0
  5462 ;;      Locals:         3       0       0       0       0       0       0       0       0       0       0       0       
      +0       0
  5463 ;;      Temps:          1       0       0       0       0       0       0       0       0       0       0       0       
      +0       0
  5464 ;;      Totals:         8       0       0       0       0       0       0       0       0       0       0       0       
      +0       0
  5465 ;;Total ram usage:        8 bytes
  5466 ;; Hardware stack levels used:    1
  5467 ;; This function calls:
  5468 ;;		Nothing
  5469 ;; This function is called by:
  5470 ;;		_main
  5471 ;; This function uses a non-reentrant model
  5472 ;;
  5473                           
  5474                           
  5475                           ;psect for function ___lwdiv
  5476  0100                     ___lwdiv:	
  5477                           
  5478                           ;incstack = 0
  5479                           ; Regs used in ___lwdiv: [wreg+status,2+status,0]
  5480  0100  01F9               	clrf	___lwdiv@quotient
  5481  0101  01FA               	clrf	___lwdiv@quotient+1
  5482  0102  0874               	movf	___lwdiv@divisor,w
  5483  0103  0475               	iorwf	___lwdiv@divisor+1,w
  5484  0104  1903               	btfsc	3,2
  5485  0105  292F               	goto	l2013
  5486  0106  01FB               	clrf	___lwdiv@counter
  5487  0107  0AFB               	incf	___lwdiv@counter,f
  5488  0108                     l2001:	
  5489  0108  1BF5               	btfsc	___lwdiv@divisor+1,7
  5490  0109  2914               	goto	l2003
  5491  010A  3001               	movlw	1
  5492  010B                     u825:	
  5493  010B  35F4               	lslf	___lwdiv@divisor,f
  5494  010C  0DF5               	rlf	___lwdiv@divisor+1,f
  5495  010D  0B89               	decfsz	9,f
  5496  010E  290B               	goto	u825
  5497  010F  3001               	movlw	1
  5498  0110  00F8               	movwf	??___lwdiv
  5499  0111  0878               	movf	??___lwdiv,w
  5500  0112  07FB               	addwf	___lwdiv@counter,f
  5501  0113  2908               	goto	l2001
  5502  0114                     l2003:	
  5503  0114  3001               	movlw	1
  5504  0115                     u845:	
  5505  0115  35F9               	lslf	___lwdiv@quotient,f
  5506  0116  0DFA               	rlf	___lwdiv@quotient+1,f
  5507  0117  0B89               	decfsz	9,f
  5508  0118  2915               	goto	u845
  5509  0119  0875               	movf	___lwdiv@divisor+1,w
  5510  011A  0277               	subwf	___lwdiv@dividend+1,w
  5511  011B  1D03               	skipz
  5512  011C  291F               	goto	u855
  5513  011D  0874               	movf	___lwdiv@divisor,w
  5514  011E  0276               	subwf	___lwdiv@dividend,w
  5515  011F                     u855:	
  5516  011F  1C03               	skipc
  5517  0120  2926               	goto	l2009
  5518  0121  0874               	movf	___lwdiv@divisor,w
  5519  0122  02F6               	subwf	___lwdiv@dividend,f
  5520  0123  0875               	movf	___lwdiv@divisor+1,w
  5521  0124  3BF7               	subwfb	___lwdiv@dividend+1,f
  5522  0125  1479               	bsf	___lwdiv@quotient,0
  5523  0126                     l2009:	
  5524  0126  3001               	movlw	1
  5525  0127                     u865:	
  5526  0127  36F5               	lsrf	___lwdiv@divisor+1,f
  5527  0128  0CF4               	rrf	___lwdiv@divisor,f
  5528  0129  0B89               	decfsz	9,f
  5529  012A  2927               	goto	u865
  5530  012B  3001               	movlw	1
  5531  012C  02FB               	subwf	___lwdiv@counter,f
  5532  012D  1D03               	btfss	3,2
  5533  012E  2914               	goto	l2003
  5534  012F                     l2013:	
  5535  012F  087A               	movf	___lwdiv@quotient+1,w
  5536  0130  00F5               	movwf	?___lwdiv+1
  5537  0131  0879               	movf	___lwdiv@quotient,w
  5538  0132  00F4               	movwf	?___lwdiv
  5539  0133  0008               	return
  5540  0134                     __end_of___lwdiv:	
  5541                           
  5542                           	psect	text5
  5543  0044                     __ptext5:	
  5544 ;; *************** function _SYSTEM_Initialize *****************
  5545 ;; Defined at:
  5546 ;;		line 50 in file "mcc_generated_files/mcc.c"
  5547 ;; Parameters:    Size  Location     Type
  5548 ;;		None
  5549 ;; Auto vars:     Size  Location     Type
  5550 ;;		None
  5551 ;; Return value:  Size  Location     Type
  5552 ;;                  1    wreg      void 
  5553 ;; Registers used:
  5554 ;;		wreg, status,2, status,0, pclath, cstack
  5555 ;; Tracked objects:
  5556 ;;		On entry : 0/0
  5557 ;;		On exit  : 0/0
  5558 ;;		Unchanged: 0/0
  5559 ;; Data sizes:     COMMON   BANK0   BANK1   BANK2   BANK3   BANK4   BANK5   BANK6   BANK7   BANK8   BANK9  BANK10  BANK1
      +1  BANK12
  5560 ;;      Params:         0       0       0       0       0       0       0       0       0       0       0       0       
      +0       0
  5561 ;;      Locals:         0       0       0       0       0       0       0       0       0       0       0       0       
      +0       0
  5562 ;;      Temps:          0       0       0       0       0       0       0       0       0       0       0       0       
      +0       0
  5563 ;;      Totals:         0       0       0       0       0       0       0       0       0       0       0       0       
      +0       0
  5564 ;;Total ram usage:        0 bytes
  5565 ;; Hardware stack levels used:    1
  5566 ;; Hardware stack levels required when called:    1
  5567 ;; This function calls:
  5568 ;;		_ADCC_Initialize
  5569 ;;		_OSCILLATOR_Initialize
  5570 ;;		_PIN_MANAGER_Initialize
  5571 ;;		_PMD_Initialize
  5572 ;; This function is called by:
  5573 ;;		_main
  5574 ;; This function uses a non-reentrant model
  5575 ;;
  5576                           
  5577                           
  5578                           ;psect for function _SYSTEM_Initialize
  5579  0044                     _SYSTEM_Initialize:	
  5580                           
  5581                           ;mcc_generated_files/mcc.c: 52:     PMD_Initialize();
  5582                           
  5583                           ;incstack = 0
  5584                           ; Regs used in _SYSTEM_Initialize: [wreg+status,2+status,0+pclath+cstack]
  5585  0044  3180  2033  3180   	fcall	_PMD_Initialize
  5586                           
  5587                           ;mcc_generated_files/mcc.c: 53:     PIN_MANAGER_Initialize();
  5588  0047  3180  20B5  3180   	fcall	_PIN_MANAGER_Initialize
  5589                           
  5590                           ;mcc_generated_files/mcc.c: 54:     OSCILLATOR_Initialize();
  5591  004A  3180  203B  3180   	fcall	_OSCILLATOR_Initialize
  5592                           
  5593                           ;mcc_generated_files/mcc.c: 55:     ADCC_Initialize();
  5594  004D  3180  206C         	fcall	_ADCC_Initialize
  5595  004F  0008               	return
  5596  0050                     __end_of_SYSTEM_Initialize:	
  5597                           
  5598                           	psect	text6
  5599  0033                     __ptext6:	
  5600 ;; *************** function _PMD_Initialize *****************
  5601 ;; Defined at:
  5602 ;;		line 72 in file "mcc_generated_files/mcc.c"
  5603 ;; Parameters:    Size  Location     Type
  5604 ;;		None
  5605 ;; Auto vars:     Size  Location     Type
  5606 ;;		None
  5607 ;; Return value:  Size  Location     Type
  5608 ;;                  1    wreg      void 
  5609 ;; Registers used:
  5610 ;;		status,2
  5611 ;; Tracked objects:
  5612 ;;		On entry : 0/0
  5613 ;;		On exit  : 0/0
  5614 ;;		Unchanged: 0/0
  5615 ;; Data sizes:     COMMON   BANK0   BANK1   BANK2   BANK3   BANK4   BANK5   BANK6   BANK7   BANK8   BANK9  BANK10  BANK1
      +1  BANK12
  5616 ;;      Params:         0       0       0       0       0       0       0       0       0       0       0       0       
      +0       0
  5617 ;;      Locals:         0       0       0       0       0       0       0       0       0       0       0       0       
      +0       0
  5618 ;;      Temps:          0       0       0       0       0       0       0       0       0       0       0       0       
      +0       0
  5619 ;;      Totals:         0       0       0       0       0       0       0       0       0       0       0       0       
      +0       0
  5620 ;;Total ram usage:        0 bytes
  5621 ;; Hardware stack levels used:    1
  5622 ;; This function calls:
  5623 ;;		Nothing
  5624 ;; This function is called by:
  5625 ;;		_SYSTEM_Initialize
  5626 ;; This function uses a non-reentrant model
  5627 ;;
  5628                           
  5629                           
  5630                           ;psect for function _PMD_Initialize
  5631  0033                     _PMD_Initialize:	
  5632                           
  5633                           ;mcc_generated_files/mcc.c: 75:     PMD0 = 0x00;
  5634                           
  5635                           ;incstack = 0
  5636                           ; Regs used in _PMD_Initialize: [status,2]
  5637  0033  002F               	movlb	15	; select bank15
  5638  0034  0196               	clrf	22	;volatile
  5639                           
  5640                           ;mcc_generated_files/mcc.c: 77:     PMD1 = 0x00;
  5641  0035  0197               	clrf	23	;volatile
  5642                           
  5643                           ;mcc_generated_files/mcc.c: 79:     PMD2 = 0x00;
  5644  0036  0198               	clrf	24	;volatile
  5645                           
  5646                           ;mcc_generated_files/mcc.c: 81:     PMD3 = 0x00;
  5647  0037  0199               	clrf	25	;volatile
  5648                           
  5649                           ;mcc_generated_files/mcc.c: 83:     PMD4 = 0x00;
  5650  0038  019A               	clrf	26	;volatile
  5651                           
  5652                           ;mcc_generated_files/mcc.c: 85:     PMD5 = 0x00;
  5653  0039  019B               	clrf	27	;volatile
  5654  003A  0008               	return
  5655  003B                     __end_of_PMD_Initialize:	
  5656                           
  5657                           	psect	text7
  5658  00B5                     __ptext7:	
  5659 ;; *************** function _PIN_MANAGER_Initialize *****************
  5660 ;; Defined at:
  5661 ;;		line 55 in file "mcc_generated_files/pin_manager.c"
  5662 ;; Parameters:    Size  Location     Type
  5663 ;;		None
  5664 ;; Auto vars:     Size  Location     Type
  5665 ;;		None
  5666 ;; Return value:  Size  Location     Type
  5667 ;;                  1    wreg      void 
  5668 ;; Registers used:
  5669 ;;		wreg, status,2
  5670 ;; Tracked objects:
  5671 ;;		On entry : 0/0
  5672 ;;		On exit  : 0/0
  5673 ;;		Unchanged: 0/0
  5674 ;; Data sizes:     COMMON   BANK0   BANK1   BANK2   BANK3   BANK4   BANK5   BANK6   BANK7   BANK8   BANK9  BANK10  BANK1
      +1  BANK12
  5675 ;;      Params:         0       0       0       0       0       0       0       0       0       0       0       0       
      +0       0
  5676 ;;      Locals:         0       0       0       0       0       0       0       0       0       0       0       0       
      +0       0
  5677 ;;      Temps:          0       0       0       0       0       0       0       0       0       0       0       0       
      +0       0
  5678 ;;      Totals:         0       0       0       0       0       0       0       0       0       0       0       0       
      +0       0
  5679 ;;Total ram usage:        0 bytes
  5680 ;; Hardware stack levels used:    1
  5681 ;; This function calls:
  5682 ;;		Nothing
  5683 ;; This function is called by:
  5684 ;;		_SYSTEM_Initialize
  5685 ;; This function uses a non-reentrant model
  5686 ;;
  5687                           
  5688                           
  5689                           ;psect for function _PIN_MANAGER_Initialize
  5690  00B5                     _PIN_MANAGER_Initialize:	
  5691                           
  5692                           ;mcc_generated_files/pin_manager.c: 60:     LATA = 0x00;
  5693                           
  5694                           ;incstack = 0
  5695                           ; Regs used in _PIN_MANAGER_Initialize: [wreg+status,2]
  5696  00B5  0020               	movlb	0	; select bank0
  5697  00B6  0196               	clrf	22	;volatile
  5698                           
  5699                           ;mcc_generated_files/pin_manager.c: 61:     LATB = 0x00;
  5700  00B7  0197               	clrf	23	;volatile
  5701                           
  5702                           ;mcc_generated_files/pin_manager.c: 62:     LATC = 0x00;
  5703  00B8  0198               	clrf	24	;volatile
  5704                           
  5705                           ;mcc_generated_files/pin_manager.c: 67:     TRISA = 0xF0;
  5706  00B9  30F0               	movlw	240
  5707  00BA  0091               	movwf	17	;volatile
  5708                           
  5709                           ;mcc_generated_files/pin_manager.c: 68:     TRISB = 0xC0;
  5710  00BB  30C0               	movlw	192
  5711  00BC  0092               	movwf	18	;volatile
  5712                           
  5713                           ;mcc_generated_files/pin_manager.c: 69:     TRISC = 0x03;
  5714  00BD  3003               	movlw	3
  5715  00BE  0093               	movwf	19	;volatile
  5716                           
  5717                           ;mcc_generated_files/pin_manager.c: 74:     ANSELC = 0xFF;
  5718  00BF  30FF               	movlw	255
  5719  00C0  003E               	movlb	30	; select bank30
  5720  00C1  00CE               	movwf	78	;volatile
  5721                           
  5722                           ;mcc_generated_files/pin_manager.c: 75:     ANSELB = 0xFF;
  5723  00C2  30FF               	movlw	255
  5724  00C3  00C3               	movwf	67	;volatile
  5725                           
  5726                           ;mcc_generated_files/pin_manager.c: 76:     ANSELA = 0xDF;
  5727  00C4  30DF               	movlw	223
  5728  00C5  00B8               	movwf	56	;volatile
  5729                           
  5730                           ;mcc_generated_files/pin_manager.c: 81:     WPUE = 0x00;
  5731  00C6  01E5               	clrf	101	;volatile
  5732                           
  5733                           ;mcc_generated_files/pin_manager.c: 82:     WPUB = 0x00;
  5734  00C7  01C4               	clrf	68	;volatile
  5735                           
  5736                           ;mcc_generated_files/pin_manager.c: 83:     WPUA = 0x00;
  5737  00C8  01B9               	clrf	57	;volatile
  5738                           
  5739                           ;mcc_generated_files/pin_manager.c: 84:     WPUC = 0x00;
  5740  00C9  01CF               	clrf	79	;volatile
  5741                           
  5742                           ;mcc_generated_files/pin_manager.c: 89:     ODCONA = 0x00;
  5743  00CA  01BA               	clrf	58	;volatile
  5744                           
  5745                           ;mcc_generated_files/pin_manager.c: 90:     ODCONB = 0x00;
  5746  00CB  01C5               	clrf	69	;volatile
  5747                           
  5748                           ;mcc_generated_files/pin_manager.c: 91:     ODCONC = 0x00;
  5749  00CC  01D0               	clrf	80	;volatile
  5750                           
  5751                           ;mcc_generated_files/pin_manager.c: 96:     SLRCONA = 0xFF;
  5752  00CD  30FF               	movlw	255
  5753  00CE  00BB               	movwf	59	;volatile
  5754                           
  5755                           ;mcc_generated_files/pin_manager.c: 97:     SLRCONB = 0xFF;
  5756  00CF  30FF               	movlw	255
  5757  00D0  00C6               	movwf	70	;volatile
  5758                           
  5759                           ;mcc_generated_files/pin_manager.c: 98:     SLRCONC = 0xFF;
  5760  00D1  30FF               	movlw	255
  5761  00D2  00D1               	movwf	81	;volatile
  5762  00D3  0008               	return
  5763  00D4                     __end_of_PIN_MANAGER_Initialize:	
  5764                           
  5765                           	psect	text8
  5766  003B                     __ptext8:	
  5767 ;; *************** function _OSCILLATOR_Initialize *****************
  5768 ;; Defined at:
  5769 ;;		line 58 in file "mcc_generated_files/mcc.c"
  5770 ;; Parameters:    Size  Location     Type
  5771 ;;		None
  5772 ;; Auto vars:     Size  Location     Type
  5773 ;;		None
  5774 ;; Return value:  Size  Location     Type
  5775 ;;                  1    wreg      void 
  5776 ;; Registers used:
  5777 ;;		wreg, status,2
  5778 ;; Tracked objects:
  5779 ;;		On entry : 0/0
  5780 ;;		On exit  : 0/0
  5781 ;;		Unchanged: 0/0
  5782 ;; Data sizes:     COMMON   BANK0   BANK1   BANK2   BANK3   BANK4   BANK5   BANK6   BANK7   BANK8   BANK9  BANK10  BANK1
      +1  BANK12
  5783 ;;      Params:         0       0       0       0       0       0       0       0       0       0       0       0       
      +0       0
  5784 ;;      Locals:         0       0       0       0       0       0       0       0       0       0       0       0       
      +0       0
  5785 ;;      Temps:          0       0       0       0       0       0       0       0       0       0       0       0       
      +0       0
  5786 ;;      Totals:         0       0       0       0       0       0       0       0       0       0       0       0       
      +0       0
  5787 ;;Total ram usage:        0 bytes
  5788 ;; Hardware stack levels used:    1
  5789 ;; This function calls:
  5790 ;;		Nothing
  5791 ;; This function is called by:
  5792 ;;		_SYSTEM_Initialize
  5793 ;; This function uses a non-reentrant model
  5794 ;;
  5795                           
  5796                           
  5797                           ;psect for function _OSCILLATOR_Initialize
  5798  003B                     _OSCILLATOR_Initialize:	
  5799                           
  5800                           ;mcc_generated_files/mcc.c: 61:     OSCCON1 = 0x62;
  5801                           
  5802                           ;incstack = 0
  5803                           ; Regs used in _OSCILLATOR_Initialize: [wreg+status,2]
  5804  003B  3062               	movlw	98
  5805  003C  0031               	movlb	17	; select bank17
  5806  003D  008D               	movwf	13	;volatile
  5807                           
  5808                           ;mcc_generated_files/mcc.c: 63:     OSCCON3 = 0x00;
  5809  003E  018F               	clrf	15	;volatile
  5810                           
  5811                           ;mcc_generated_files/mcc.c: 65:     OSCEN = 0x00;
  5812  003F  0191               	clrf	17	;volatile
  5813                           
  5814                           ;mcc_generated_files/mcc.c: 67:     OSCFRQ = 0x02;
  5815  0040  3002               	movlw	2
  5816  0041  0093               	movwf	19	;volatile
  5817                           
  5818                           ;mcc_generated_files/mcc.c: 69:     OSCTUNE = 0x00;
  5819  0042  0192               	clrf	18	;volatile
  5820  0043  0008               	return
  5821  0044                     __end_of_OSCILLATOR_Initialize:	
  5822                           
  5823                           	psect	text9
  5824  006C                     __ptext9:	
  5825 ;; *************** function _ADCC_Initialize *****************
  5826 ;; Defined at:
  5827 ;;		line 63 in file "mcc_generated_files/adcc.c"
  5828 ;; Parameters:    Size  Location     Type
  5829 ;;		None
  5830 ;; Auto vars:     Size  Location     Type
  5831 ;;		None
  5832 ;; Return value:  Size  Location     Type
  5833 ;;                  1    wreg      void 
  5834 ;; Registers used:
  5835 ;;		wreg, status,2
  5836 ;; Tracked objects:
  5837 ;;		On entry : 0/0
  5838 ;;		On exit  : 0/0
  5839 ;;		Unchanged: 0/0
  5840 ;; Data sizes:     COMMON   BANK0   BANK1   BANK2   BANK3   BANK4   BANK5   BANK6   BANK7   BANK8   BANK9  BANK10  BANK1
      +1  BANK12
  5841 ;;      Params:         0       0       0       0       0       0       0       0       0       0       0       0       
      +0       0
  5842 ;;      Locals:         0       0       0       0       0       0       0       0       0       0       0       0       
      +0       0
  5843 ;;      Temps:          0       0       0       0       0       0       0       0       0       0       0       0       
      +0       0
  5844 ;;      Totals:         0       0       0       0       0       0       0       0       0       0       0       0       
      +0       0
  5845 ;;Total ram usage:        0 bytes
  5846 ;; Hardware stack levels used:    1
  5847 ;; This function calls:
  5848 ;;		Nothing
  5849 ;; This function is called by:
  5850 ;;		_SYSTEM_Initialize
  5851 ;; This function uses a non-reentrant model
  5852 ;;
  5853                           
  5854                           
  5855                           ;psect for function _ADCC_Initialize
  5856  006C                     _ADCC_Initialize:	
  5857                           
  5858                           ;mcc_generated_files/adcc.c: 67:     ADLTHL = 0x00;
  5859                           
  5860                           ;incstack = 0
  5861                           ; Regs used in _ADCC_Initialize: [wreg+status,2]
  5862  006C  0022               	movlb	2	; select bank2
  5863  006D  018E               	clrf	14	;volatile
  5864                           
  5865                           ;mcc_generated_files/adcc.c: 69:     ADLTHH = 0x00;
  5866  006E  018F               	clrf	15	;volatile
  5867                           
  5868                           ;mcc_generated_files/adcc.c: 71:     ADUTHL = 0x00;
  5869  006F  0190               	clrf	16	;volatile
  5870                           
  5871                           ;mcc_generated_files/adcc.c: 73:     ADUTHH = 0x00;
  5872  0070  0191               	clrf	17	;volatile
  5873                           
  5874                           ;mcc_generated_files/adcc.c: 75:     ADSTPTL = 0x00;
  5875  0071  0192               	clrf	18	;volatile
  5876                           
  5877                           ;mcc_generated_files/adcc.c: 77:     ADSTPTH = 0x00;
  5878  0072  0193               	clrf	19	;volatile
  5879                           
  5880                           ;mcc_generated_files/adcc.c: 79:     ADRPT = 0x00;
  5881  0073  018D               	clrf	13	;volatile
  5882                           
  5883                           ;mcc_generated_files/adcc.c: 81:     ADPCH = 0x00;
  5884  0074  0021               	movlb	1	; select bank1
  5885  0075  019E               	clrf	30	;volatile
  5886                           
  5887                           ;mcc_generated_files/adcc.c: 83:     ADCAP = 0x00;
  5888  0076  019B               	clrf	27	;volatile
  5889                           
  5890                           ;mcc_generated_files/adcc.c: 85:     ADCON1 = 0x00;
  5891  0077  0194               	clrf	20	;volatile
  5892                           
  5893                           ;mcc_generated_files/adcc.c: 87:     ADCON2 = 0x00;
  5894  0078  0195               	clrf	21	;volatile
  5895                           
  5896                           ;mcc_generated_files/adcc.c: 89:     ADCON3 = 0x00;
  5897  0079  0196               	clrf	22	;volatile
  5898                           
  5899                           ;mcc_generated_files/adcc.c: 91:     ADSTAT = 0x00;
  5900  007A  0197               	clrf	23	;volatile
  5901                           
  5902                           ;mcc_generated_files/adcc.c: 93:     ADREF = 0x00;
  5903  007B  019A               	clrf	26	;volatile
  5904                           
  5905                           ;mcc_generated_files/adcc.c: 95:     ADACT = 0x00;
  5906  007C  0199               	clrf	25	;volatile
  5907                           
  5908                           ;mcc_generated_files/adcc.c: 97:     ADCLK = 0x00;
  5909  007D  0198               	clrf	24	;volatile
  5910                           
  5911                           ;mcc_generated_files/adcc.c: 99:     ADCON0 = 0x84;
  5912  007E  3084               	movlw	132
  5913  007F  0093               	movwf	19	;volatile
  5914                           
  5915                           ;mcc_generated_files/adcc.c: 101:     ADACQ = 0x00;
  5916  0080  019D               	clrf	29	;volatile
  5917  0081  0008               	return
  5918  0082                     __end_of_ADCC_Initialize:	
  5919                           
  5920                           	psect	text10
  5921  005C                     __ptext10:	
  5922 ;; *************** function _ADCC_GetSingleConversion *****************
  5923 ;; Defined at:
  5924 ;;		line 130 in file "mcc_generated_files/adcc.c"
  5925 ;; Parameters:    Size  Location     Type
  5926 ;;  channel         1    wreg     enum E11724
  5927 ;; Auto vars:     Size  Location     Type
  5928 ;;  channel         1    3[COMMON] enum E11724
  5929 ;; Return value:  Size  Location     Type
  5930 ;;                  2    0[COMMON] unsigned short 
  5931 ;; Registers used:
  5932 ;;		wreg
  5933 ;; Tracked objects:
  5934 ;;		On entry : 0/0
  5935 ;;		On exit  : 0/0
  5936 ;;		Unchanged: 0/0
  5937 ;; Data sizes:     COMMON   BANK0   BANK1   BANK2   BANK3   BANK4   BANK5   BANK6   BANK7   BANK8   BANK9  BANK10  BANK1
      +1  BANK12
  5938 ;;      Params:         3       0       0       0       0       0       0       0       0       0       0       0       
      +0       0
  5939 ;;      Locals:         1       0       0       0       0       0       0       0       0       0       0       0       
      +0       0
  5940 ;;      Temps:          0       0       0       0       0       0       0       0       0       0       0       0       
      +0       0
  5941 ;;      Totals:         4       0       0       0       0       0       0       0       0       0       0       0       
      +0       0
  5942 ;;Total ram usage:        4 bytes
  5943 ;; Hardware stack levels used:    1
  5944 ;; This function calls:
  5945 ;;		Nothing
  5946 ;; This function is called by:
  5947 ;;		_main
  5948 ;; This function uses a non-reentrant model
  5949 ;;
  5950                           
  5951                           
  5952                           ;psect for function _ADCC_GetSingleConversion
  5953  005C                     _ADCC_GetSingleConversion:	
  5954                           
  5955                           ;incstack = 0
  5956                           ; Regs used in _ADCC_GetSingleConversion: [wreg]
  5957                           ;ADCC_GetSingleConversion@channel stored from wreg
  5958  005C  00F3               	movwf	ADCC_GetSingleConversion@channel
  5959                           
  5960                           ;mcc_generated_files/adcc.c: 130: adc_result_t ADCC_GetSingleConversion(adcc_channel_t c
      +                          hannel);mcc_generated_files/adcc.c: 131: {;mcc_generated_files/adcc.c: 133:     ADPCH = 
      +                          channel;
  5961  005D  0873               	movf	ADCC_GetSingleConversion@channel,w
  5962  005E  0021               	movlb	1	; select bank1
  5963  005F  009E               	movwf	30	;volatile
  5964                           
  5965                           ;mcc_generated_files/adcc.c: 136:     ADCON0bits.ADON = 1;
  5966  0060  1793               	bsf	19,7	;volatile
  5967                           
  5968                           ;mcc_generated_files/adcc.c: 139:     ADCON0bits.ADCONT = 0;
  5969  0061  1313               	bcf	19,6	;volatile
  5970                           
  5971                           ;mcc_generated_files/adcc.c: 142:     ADCON0bits.ADGO = 1;
  5972  0062  1413               	bsf	19,0	;volatile
  5973                           
  5974                           ;mcc_generated_files/adcc.c: 145:     __nop();
  5975  0063  0000               	nop
  5976  0064                     l87:	
  5977                           ;mcc_generated_files/adcc.c: 149:     {;mcc_generated_files/adcc.c: 150:     }
  5978                           
  5979                           
  5980                           ;mcc_generated_files/adcc.c: 148:     while (ADCON0bits.ADGO)
  5981  0064  0021               	movlb	1	; select bank1
  5982  0065  1813               	btfsc	19,0	;volatile
  5983  0066  2864               	goto	l87
  5984                           
  5985                           ;mcc_generated_files/adcc.c: 154:     return ((adc_result_t)((ADRESH << 8) + ADRESL));
  5986  0067  080D               	movf	13,w	;volatile
  5987  0068  00F1               	movwf	?_ADCC_GetSingleConversion+1
  5988  0069  080C               	movf	12,w	;volatile
  5989  006A  00F0               	movwf	?_ADCC_GetSingleConversion
  5990  006B  0008               	return
  5991  006C                     __end_of_ADCC_GetSingleConversion:	
  5992  007E                     btemp	set	126	;btemp
  5993  007E                     wtemp0	set	126


Data Sizes:
    Strings     0
    Constant    0
    Data        283
    BSS         0
    Persistent  32
    Stack       0

Auto Spaces:
    Space          Size  Autos    Used
    COMMON           14     13      13
    BANK0            80     39      63
    BANK1            80      0       0
    BANK2            80      0       0
    BANK3            80      0       0
    BANK4            80      0       0
    BANK5            80      0       0
    BANK6            80      0       0
    BANK7            80      0       0
    BANK8            80      0       0
    BANK9            29      0       0
    BANK10            0      0       0
    BANK11            0      0       0
    BANK12            0      0       0

Pointer List with Targets:

    digitShow@p	PTR unsigned char  size(2) Largest target is 259
		 -> matrix_word(BIGRAM[259]), 


Critical Paths under _main in COMMON

    _main->_digitShow
    _digitShow->___wmul
    ___lwmod->_ADCC_GetSingleConversion
    ___lwdiv->_ADCC_GetSingleConversion

Critical Paths under _main in BANK0

    None.

Critical Paths under _main in BANK1

    None.

Critical Paths under _main in BANK2

    None.

Critical Paths under _main in BANK3

    None.

Critical Paths under _main in BANK4

    None.

Critical Paths under _main in BANK5

    None.

Critical Paths under _main in BANK6

    None.

Critical Paths under _main in BANK7

    None.

Critical Paths under _main in BANK8

    None.

Critical Paths under _main in BANK9

    None.

Critical Paths under _main in BANK10

    None.

Critical Paths under _main in BANK11

    None.

Critical Paths under _main in BANK12

    None.

Call Graph Tables:

 ---------------------------------------------------------------------------------
 (Depth) Function   	        Calls       Base Space   Used Autos Params    Refs
 ---------------------------------------------------------------------------------
 (0) _main                                                39    39      0    3941
                                              0 BANK0     39    39      0
           _ADCC_GetSingleConversion
                  _SYSTEM_Initialize
                            ___lwdiv
                            ___lwmod
                          _digitShow
 ---------------------------------------------------------------------------------
 (1) _digitShow                                            7     7      0     428
                                              6 COMMON     7     7      0
                             ___wmul
 ---------------------------------------------------------------------------------
 (2) ___wmul                                               6     2      4     244
                                              0 COMMON     6     2      4
 ---------------------------------------------------------------------------------
 (1) ___lwmod                                              6     2      4    1679
                                              4 COMMON     6     2      4
           _ADCC_GetSingleConversion (ARG)
 ---------------------------------------------------------------------------------
 (1) ___lwdiv                                              8     4      4     314
                                              4 COMMON     8     4      4
           _ADCC_GetSingleConversion (ARG)
 ---------------------------------------------------------------------------------
 (1) _SYSTEM_Initialize                                    0     0      0       0
                    _ADCC_Initialize
              _OSCILLATOR_Initialize
             _PIN_MANAGER_Initialize
                     _PMD_Initialize
 ---------------------------------------------------------------------------------
 (2) _PMD_Initialize                                       0     0      0       0
 ---------------------------------------------------------------------------------
 (2) _PIN_MANAGER_Initialize                               0     0      0       0
 ---------------------------------------------------------------------------------
 (2) _OSCILLATOR_Initialize                                0     0      0       0
 ---------------------------------------------------------------------------------
 (2) _ADCC_Initialize                                      0     0      0       0
 ---------------------------------------------------------------------------------
 (1) _ADCC_GetSingleConversion                             4     1      3      22
                                              0 COMMON     4     1      3
 ---------------------------------------------------------------------------------
 Estimated maximum stack depth 2
 ---------------------------------------------------------------------------------

 Call Graph Graphs:

 _main (ROOT)
   _ADCC_GetSingleConversion
   _SYSTEM_Initialize
     _ADCC_Initialize
     _OSCILLATOR_Initialize
     _PIN_MANAGER_Initialize
     _PMD_Initialize
   ___lwdiv
     _ADCC_GetSingleConversion (ARG)
   ___lwmod
     _ADCC_GetSingleConversion (ARG)
   _digitShow
     ___wmul

 Address spaces:
Name               Size   Autos  Total    Cost      Usage
BIGRAM             3F0      0       0       0        0.0%
EEDATA             100      0       0       0        0.0%
NULL                 0      0       0       0        0.0%
CODE                 0      0       0       0        0.0%
BITCOMMON            E      0       0       1        0.0%
BITSFR0              0      0       0       1        0.0%
SFR0                 0      0       0       1        0.0%
COMMON               E      D       D       2       92.9%
BITSFR1              0      0       0       2        0.0%
SFR1                 0      0       0       2        0.0%
BITSFR2              0      0       0       3        0.0%
SFR2                 0      0       0       3        0.0%
STACK                0      0       0       3        0.0%
BITBANK0            50      0       0       4        0.0%
BITSFR3              0      0       0       4        0.0%
SFR3                 0      0       0       4        0.0%
BANK0               50     27      3F       5       78.8%
BITSFR4              0      0       0       5        0.0%
SFR4                 0      0       0       5        0.0%
BITBANK1            50      0       0       6        0.0%
BITSFR5              0      0       0       6        0.0%
SFR5                 0      0       0       6        0.0%
BANK1               50      0       0       7        0.0%
BITSFR6              0      0       0       7        0.0%
SFR6                 0      0       0       7        0.0%
BITBANK2            50      0       0       8        0.0%
BITSFR7              0      0       0       8        0.0%
SFR7                 0      0       0       8        0.0%
BANK2               50      0       0       9        0.0%
BITSFR8              0      0       0       9        0.0%
SFR8                 0      0       0       9        0.0%
BITBANK3            50      0       0      10        0.0%
BITSFR9              0      0       0      10        0.0%
SFR9                 0      0       0      10        0.0%
BANK3               50      0       0      11        0.0%
BITSFR10             0      0       0      11        0.0%
SFR10                0      0       0      11        0.0%
BITBANK4            50      0       0      12        0.0%
BITSFR11             0      0       0      12        0.0%
SFR11                0      0       0      12        0.0%
BANK4               50      0       0      13        0.0%
BITSFR12             0      0       0      13        0.0%
SFR12                0      0       0      13        0.0%
BITBANK5            50      0       0      14        0.0%
BITSFR13             0      0       0      14        0.0%
SFR13                0      0       0      14        0.0%
BANK5               50      0       0      15        0.0%
BITSFR14             0      0       0      15        0.0%
SFR14                0      0       0      15        0.0%
BITBANK6            50      0       0      16        0.0%
BITSFR15             0      0       0      16        0.0%
SFR15                0      0       0      16        0.0%
BANK6               50      0       0      17        0.0%
BITSFR16             0      0       0      17        0.0%
SFR16                0      0       0      17        0.0%
BITBANK7            50      0       0      18        0.0%
BITSFR17             0      0       0      18        0.0%
SFR17                0      0       0      18        0.0%
BANK7               50      0       0      19        0.0%
BITSFR18             0      0       0      19        0.0%
SFR18                0      0       0      19        0.0%
BITSFR19             0      0       0      20        0.0%
SFR19                0      0       0      20        0.0%
ABS                  0      0      4C      20        0.0%
BITBANK8            50      0       0      21        0.0%
BITSFR20             0      0       0      21        0.0%
SFR20                0      0       0      21        0.0%
BANK8               50      0       0      22        0.0%
BITSFR21             0      0       0      22        0.0%
SFR21                0      0       0      22        0.0%
BITBANK9            50      0       0      23        0.0%
BITSFR22             0      0       0      23        0.0%
SFR22                0      0       0      23        0.0%
BANK9               1D      0       0      24        0.0%
BITSFR23             0      0       0      24        0.0%
SFR23                0      0       0      24        0.0%
BITBANK10           50      0       0      25        0.0%
BITSFR24             0      0       0      25        0.0%
SFR24                0      0       0      25        0.0%
BITSFR25             0      0       0      26        0.0%
SFR25                0      0       0      26        0.0%
BANK10               0      0       0      26        0.0%
BITBANK11           50      0       0      27        0.0%
BITSFR26             0      0       0      27        0.0%
SFR26                0      0       0      27        0.0%
BITSFR27             0      0       0      28        0.0%
SFR27                0      0       0      28        0.0%
BANK11               0      0       0      28        0.0%
BITBANK12           30      0       0      29        0.0%
BITSFR28             0      0       0      29        0.0%
SFR28                0      0       0      29        0.0%
BITSFR29             0      0       0      30        0.0%
SFR29                0      0       0      30        0.0%
BANK12               0      0       0      30        0.0%
BITSFR30             0      0       0      31        0.0%
SFR30                0      0       0      31        0.0%
DATA                 0      0      4C      31        0.0%
BITSFR31             0      0       0      32        0.0%
SFR31                0      0       0      32        0.0%


Microchip Technology PIC Macro Assembler V2.05 build -831301201 
Symbol Table                                                                                   Fri Apr 26 14:46:44 2019

                      __CFG_CP$OFF 0000                                 l87 0064  
              ___wmul@multiplicand 0072                        __CFG_LVP$ON 0000  
                              l306 032B                                l328 0419  
                              l426 0758                                l418 05E1  
                              l348 046F                                l286 02D5  
                              l448 066C                                l388 058F  
                              l398 0594                                l479 0732  
                              l488 076C                                l673 00A2  
                     __CFG_CPD$OFF 0000                                u825 010B  
                              u915 00EC                                u845 0115  
                              u925 00F3                                u855 011F  
                              u775 00A3                                u865 0127  
                              u785 00A8                                u895 00DD  
                              _new 0047                                _set 005B  
          __size_of_PMD_Initialize 0008                       __CFG_BORV$LO 0000  
                              wreg 0009                        main@digit__ 0035  
                     __CFG_ZCD$OFF 0000                               l2001 0108  
                             l2003 0114                               l2013 012F  
                             l2031 00F2                               l2009 0126  
                             l2025 00DA                               l2027 00E6  
                             l2035 00FB                               l2221 0466  
                             l2109 0322                               l2129 0368  
                             l2411 0619                               l2251 04D6  
                             l2147 03A2                               l2317 053C  
                             l2237 04A4                               l2165 03DD  
                             l2431 06B0                               l2265 0509  
                             l2523 0777                               l2355 05D8  
                             l2445 06D6                               l2537 078E  
                             l2485 06DF                               l1927 009C  
                             u2007 064A                               u2017 0654  
                             u2107 0700                               u2027 065A  
                             u2117 070A                               u2037 0666  
                             _LATA 0016                               _LATB 0017  
                             u2127 0710                               u2047 06AA  
                             _LATC 0018                               u2137 071A  
                             u2057 06D0                               u2147 0720  
                             u2067 06DA                               u2157 072C  
                             u2077 06EA                               u1365 05F6  
                             u1517 02DB                               u2167 0752  
                             u2087 06F0                               u1375 05FE  
                             u1607 0363                               u1527 02E1  
                             u2177 0787                               u2097 06FA  
                             u1385 0606                               u1617 039D  
                             u1537 02EB                               u2187 07C7  
                             u1395 060E                               u1707 044F  
                             u1627 03D8                               u1547 02F1  
                             u2197 07D8                               u1717 0455  
                             u1637 0413                               u1557 02FB  
                             u1807 055D                               u1727 0461  
                             u1647 041F                               u1567 0301  
                             u1817 0567                               u1737 049F  
                             u1657 0425                               u1577 030B  
                             u1907 05BA                               u1827 056D  
                             u1747 04D1                               u1667 042F  
                             u1587 0311                               u1917 05C0  
                             u1837 0577                               u1757 0504  
                             u1677 0435                               u1597 031D  
                             u1927 05CA                               u1847 057D  
                             u1767 0537                               u1687 043F  
                             u1937 05D0                               u1857 0589  
                             u1777 0547                               u1697 0445  
                             u1947 0614                               u1867 059A  
                             u1787 054D                               _PMD0 0796  
                             u1957 0624                               u1877 05A0  
                             u1797 0557                               _PMD1 0797  
                             _PMD2 0798                               u1967 062A  
                             u1887 05AA                               _PMD3 0799  
                             _PMD4 079A                               u1977 0634  
                             u1897 05B0                               _PMD5 079B  
                             u1987 063A                               u1997 0644  
                             _WPUA 0F39                               _WPUB 0F44  
                             _WPUC 0F4F                               _WPUE 0F65  
                     __CFG_WRT$OFF 0000                      __CFG_FCMEN$ON 0000  
                             _deny 004F                               _main 02AD  
                             _entr 0057                        main@set_btn 0037  
                             _open 0053                               fsr0h 0005  
                             fsr1h 0007                               fsr0l 0004  
                             indf1 0001                               fsr1l 0006  
                             btemp 007E                      __CFG_BOREN$ON 0000  
                             start 0002                      __CFG_CSWEN$ON 0000  
                    __CFG_MCLRE$ON 0000                       main@deny_btn 0033  
   __size_of_OSCILLATOR_Initialize 0009      __end_of_OSCILLATOR_Initialize 0044  
                            _ADACQ 009D                              _ADCAP 009B  
                            _ADACT 0099                              ?_main 0070  
                            _ADCLK 0098                              _ADCNT 010C  
                            _ADPCH 009E                              _ADREF 009A  
                            _ADPRE 009C                      __CFG_WDTE$OFF 0000  
                            _ADRPT 010D                     __CFG_DEBUG$OFF 0000  
                  __end_of___lwdiv 0134                    __end_of___lwmod 0100  
                     main@entr_btn 002F                              _OSCEN 0891  
                            _TRISA 0011                              _TRISB 0012  
                            _TRISC 0013                       main@open_btn 0031  
                            status 0003                              wtemp0 007E  
                  __initialization 07E2                       __end_of_main 07E2  
                           ??_main 0020                      main@digit_tmp 0027  
                    main@btn_count 0043                             _ADACCH 0091  
                           _ADACCL 0090                             _ADCON0 0093  
                           _ADCON1 0094                             _ADCON2 0095  
                           _ADCON3 0096                             _ADERRH 0117  
                           _ADERRL 0116                             _ADLTHH 010F  
                           _ADLTHL 010E                             _ADRESH 008D  
                           _ADRESL 008C                             _ADSTAT 0097  
                           _ADUTHH 0111                             _ADUTHL 0110  
                           _ANSELA 0F38                             _ANSELB 0F43  
                           _ANSELC 0F4E                 __CFG_RSTOSC$HFINT1 0000  
                           _ODCONA 0F3A                             _ODCONB 0F45  
                           _ODCONC 0F50                     __CFG_WDTCCS$SC 0000  
                           _OSCFRQ 0893                     __CFG_PWRTE$OFF 0000  
                           ___wmul 009A                     __CFG_STVREN$ON 0000  
                        ??___lwdiv 0078                          ??___lwmod 0078  
                           _lock__ 004B                       __pdataBIGRAM 22ED  
                  _ADCC_Initialize 006C                     _PMD_Initialize 0033  
__size_of_ADCC_GetSingleConversion 0010          ?_ADCC_GetSingleConversion 0070  
                _SYSTEM_Initialize 0044            __end_of__initialization 07FD  
               ?_SYSTEM_Initialize 0070                     __pcstackCOMMON 0070  
                     __pidataBANK0 0082                ??_SYSTEM_Initialize 0070  
           __end_of_PMD_Initialize 003B                 __size_of_digitShow 0076  
        __end_of_SYSTEM_Initialize 0050                         __pmaintext 02AD  
                          ?___wmul 0070                    __CFG_PPS1WAY$ON 0000  
          __end_of_ADCC_Initialize 0082                            _ADFLTRH 0115  
                          _ADFLTRL 0114                            _ADPREVH 008F  
                          _ADPREVL 008E                            _ADSTPTH 0113  
                          _ADSTPTL 0112                    ?_PMD_Initialize 0070  
                          _OSCCON1 088D                            _OSCCON3 088F  
                          _OSCTUNE 0892                            _SLRCONA 0F3B  
                          _SLRCONB 0F46                            _SLRCONC 0F51  
                __end_of_digitShow 01AA                     digitShow@value 007A  
             __CFG_SCANE$available 0000                    __size_of___wmul 001B  
                          ___lwdiv 0100                            ___lwmod 00D4  
                          __ptext1 0134                            __ptext2 009A  
                          __ptext3 00D4                            __ptext4 0100  
                          __ptext5 0044                            __ptext6 0033  
                          __ptext7 00B5                            __ptext8 003B  
                          __ptext9 006C              _OSCILLATOR_Initialize 003B  
         ??_PIN_MANAGER_Initialize 0070         __size_of_SYSTEM_Initialize 000C  
             end_of_initialization 07FD                     main@prgm_count 0045  
                          init_ram 0050                            initloop 0051  
                       digitShow@p 007B                   ?_ADCC_Initialize 0070  
 __end_of_ADCC_GetSingleConversion 006C              __CFG_WDTCPS$WDTCPS_31 0000  
                        _PORTAbits 000C                   __CFG_FEXTOSC$OFF 0000  
                       main@last__ 0036                      __pidataBIGRAM 01AA  
                 main@lock_display 0025                     __end_of___wmul 00B5  
           ?_OSCILLATOR_Initialize 0070                start_initialization 07E2  
  __size_of_PIN_MANAGER_Initialize 001F                   __CFG_LPBOREN$OFF 0000  
                 ??_PMD_Initialize 0070                           ??___wmul 0074  
                      __pdataBANK0 0047           _ADCC_GetSingleConversion 005C  
                        ___latbits 0002                      __pcstackBANK0 0020  
                 ___lwdiv@dividend 0076             _PIN_MANAGER_Initialize 00B5  
                        _digitShow 0134    ADCC_GetSingleConversion@channel 0073  
                         ?___lwdiv 0074                           ?___lwmod 0074  
                 ___lwdiv@quotient 0079                     ___wmul@product 0074  
                         _LATAbits 0016                           _LATBbits 0017  
                         _LATCbits 0018                         ?_digitShow 0070  
                       _ADCON0bits 0093                         _ADCON1bits 0094  
                       _ADCON2bits 0095                         _ADCON3bits 0096  
                ___wmul@multiplier 0070                          main@digit 003B  
                  main@new_display 0023                         _ADSTATbits 0097  
          ??_OSCILLATOR_Initialize 0070                   __size_of___lwdiv 0034  
                 __size_of___lwmod 002C           __size_of_ADCC_Initialize 0016  
                  ___lwdiv@divisor 0074                    ___lwdiv@counter 007B  
                         __ptext10 005C                        _matrix_word 22ED  
                    __size_of_main 0535               __CFG_WDTCWS$WDTCWS_7 0000  
                      ??_digitShow 0076         ??_ADCC_GetSingleConversion 0073  
                         main@lock 0039                           main@zero 0022  
                 ___lwmod@dividend 0076            ?_PIN_MANAGER_Initialize 0070  
                __CFG_CLKOUTEN$OFF 0000                    ___lwmod@divisor 0074  
                  ___lwmod@counter 0079     __end_of_PIN_MANAGER_Initialize 00D4  
                ??_ADCC_Initialize 0070  
